---
triple:          'arm64-apple-darwin'
binary-path:     ast6Main
relocations:
  - { offsetInCU: 0x26, offset: 0x26, size: 0x8, addend: 0x0, symName: _main, symObjAddr: 0x0, symBinAddr: 0x100001154, symSize: 0x2C }
  - { offsetInCU: 0x2C5F, offset: 0x2C5F, size: 0x8, addend: 0x0, symName: _main, symObjAddr: 0x0, symBinAddr: 0x100001154, symSize: 0x2C }
  - { offsetInCU: 0x3B, offset: 0x2CB3, size: 0x8, addend: 0x0, symName: _.str, symObjAddr: 0xBBE0, symBinAddr: 0x100016160, symSize: 0x0 }
  - { offsetInCU: 0x6B, offset: 0x2CE3, size: 0x8, addend: 0x0, symName: _.str.1, symObjAddr: 0xBC40, symBinAddr: 0x1000161C0, symSize: 0x0 }
  - { offsetInCU: 0x88, offset: 0x2D00, size: 0x8, addend: 0x0, symName: _.str.2, symObjAddr: 0xBC80, symBinAddr: 0x100016200, symSize: 0x0 }
  - { offsetInCU: 0xA5, offset: 0x2D1D, size: 0x8, addend: 0x0, symName: _.str.3, symObjAddr: 0xBCA0, symBinAddr: 0x100016220, symSize: 0x0 }
  - { offsetInCU: 0xC2, offset: 0x2D3A, size: 0x8, addend: 0x0, symName: _.str.4, symObjAddr: 0xBCC0, symBinAddr: 0x100016240, symSize: 0x0 }
  - { offsetInCU: 0xDF, offset: 0x2D57, size: 0x8, addend: 0x0, symName: _.str.5, symObjAddr: 0xBCE0, symBinAddr: 0x100016260, symSize: 0x0 }
  - { offsetInCU: 0xF0, offset: 0x2D68, size: 0x8, addend: 0x0, symName: _.str.6, symObjAddr: 0xBD00, symBinAddr: 0x100016280, symSize: 0x0 }
  - { offsetInCU: 0x10D, offset: 0x2D85, size: 0x8, addend: 0x0, symName: _.str.7, symObjAddr: 0xBD20, symBinAddr: 0x1000162A0, symSize: 0x0 }
  - { offsetInCU: 0x12A, offset: 0x2DA2, size: 0x8, addend: 0x0, symName: _.str.8, symObjAddr: 0xBD40, symBinAddr: 0x1000162C0, symSize: 0x0 }
  - { offsetInCU: 0x13C, offset: 0x2DB4, size: 0x8, addend: 0x0, symName: _.str.9, symObjAddr: 0xBD80, symBinAddr: 0x100016300, symSize: 0x0 }
  - { offsetInCU: 0x159, offset: 0x2DD1, size: 0x8, addend: 0x0, symName: _.str.10, symObjAddr: 0xBDA0, symBinAddr: 0x100016320, symSize: 0x0 }
  - { offsetInCU: 0x176, offset: 0x2DEE, size: 0x8, addend: 0x0, symName: _.str.11, symObjAddr: 0xBDC0, symBinAddr: 0x100016340, symSize: 0x0 }
  - { offsetInCU: 0x187, offset: 0x2DFF, size: 0x8, addend: 0x0, symName: _.str.12, symObjAddr: 0xBDE0, symBinAddr: 0x100016360, symSize: 0x0 }
  - { offsetInCU: 0x198, offset: 0x2E10, size: 0x8, addend: 0x0, symName: _.str.13, symObjAddr: 0xBE00, symBinAddr: 0x100016380, symSize: 0x0 }
  - { offsetInCU: 0x1A9, offset: 0x2E21, size: 0x8, addend: 0x0, symName: _.str.14, symObjAddr: 0xBE20, symBinAddr: 0x1000163A0, symSize: 0x0 }
  - { offsetInCU: 0x44BA, offset: 0x7132, size: 0x8, addend: 0x0, symName: __ZNSt3__124__put_character_sequenceB7v160006IcNS_11char_traitsIcEEEERNS_13basic_ostreamIT_T0_EES7_PKS4_m, symObjAddr: 0x28E0, symBinAddr: 0x100003A78, symSize: 0x74C }
  - { offsetInCU: 0x62DF, offset: 0x8F57, size: 0x8, addend: 0x0, symName: __ZNSt3__1lsB7v160006INS_11char_traitsIcEEEERNS_13basic_ostreamIcT_EES6_c, symObjAddr: 0x10C, symBinAddr: 0x1000012A4, symSize: 0x220 }
  - { offsetInCU: 0x632A, offset: 0x8FA2, size: 0x8, addend: 0x0, symName: __ZNSt3__1lsB7v160006IcNS_11char_traitsIcEENS_9allocatorIcEEEERNS_13basic_ostreamIT_T0_EES9_RKNS_12basic_stringIS6_S7_T1_EE, symObjAddr: 0x32C, symBinAddr: 0x1000014C4, symSize: 0x4C }
  - { offsetInCU: 0x6382, offset: 0x8FFA, size: 0x8, addend: 0x0, symName: __ZNSt3__1lsB7v160006INS_11char_traitsIcEEEERNS_13basic_ostreamIcT_EES6_PKc, symObjAddr: 0x378, symBinAddr: 0x100001510, symSize: 0x48 }
  - { offsetInCU: 0x63C8, offset: 0x9040, size: 0x8, addend: 0x0, symName: __ZNSt3__14endlB7v160006IcNS_11char_traitsIcEEEERNS_13basic_ostreamIT_T0_EES7_, symObjAddr: 0x76C, symBinAddr: 0x100001904, symSize: 0xD4 }
  - { offsetInCU: 0x6408, offset: 0x9080, size: 0x8, addend: 0x0, symName: __ZNSt3__119__debug_db_insert_cB7v160006INS_6vectorIP7PokemonIiENS_9allocatorIS4_EEEEEEvPT_, symObjAddr: 0x1C8C, symBinAddr: 0x100002E24, symSize: 0x10 }
  - { offsetInCU: 0x6439, offset: 0x90B1, size: 0x8, addend: 0x0, symName: __ZNSt3__118__debug_db_erase_cB7v160006INS_6vectorIP7PokemonIiENS_9allocatorIS4_EEEEEEvPT_, symObjAddr: 0x2374, symBinAddr: 0x10000350C, symSize: 0x10 }
  - { offsetInCU: 0x646A, offset: 0x90E2, size: 0x8, addend: 0x0, symName: __ZNSt3__130__libcpp_is_constant_evaluatedB7v160006Ev, symObjAddr: 0x25C8, symBinAddr: 0x100003760, symSize: 0xC }
  - { offsetInCU: 0x6487, offset: 0x90FF, size: 0x8, addend: 0x0, symName: __ZNSt3__112__to_addressB7v160006IP7PokemonIiEEEPT_S5_, symObjAddr: 0x25D4, symBinAddr: 0x10000376C, symSize: 0x14 }
  - { offsetInCU: 0x64BC, offset: 0x9134, size: 0x8, addend: 0x0, symName: __ZNSt3__119__libcpp_deallocateB7v160006EPvmm, symObjAddr: 0x27CC, symBinAddr: 0x100003964, symSize: 0x30 }
  - { offsetInCU: 0x6504, offset: 0x917C, size: 0x8, addend: 0x0, symName: __ZNSt3__127__do_deallocate_handle_sizeB7v160006IJEEEvPvmDpT_, symObjAddr: 0x27FC, symBinAddr: 0x100003994, symSize: 0x28 }
  - { offsetInCU: 0x6542, offset: 0x91BA, size: 0x8, addend: 0x0, symName: __ZNSt3__124__libcpp_operator_deleteB7v160006IJPvEEEvDpT_, symObjAddr: 0x2824, symBinAddr: 0x1000039BC, symSize: 0x24 }
  - { offsetInCU: 0x6577, offset: 0x91EF, size: 0x8, addend: 0x0, symName: __ZNSt3__116__pad_and_outputB7v160006IcNS_11char_traitsIcEEEENS_19ostreambuf_iteratorIT_T0_EES6_PKS4_S8_S8_RNS_8ios_baseES4_, symObjAddr: 0x3108, symBinAddr: 0x1000042A0, symSize: 0x774 }
  - { offsetInCU: 0x6654, offset: 0x92CC, size: 0x8, addend: 0x0, symName: __ZNSt3__119__debug_db_insert_cB7v160006INS_12basic_stringIcNS_11char_traitsIcEENS_9allocatorIcEEEEEEvPT_, symObjAddr: 0x3FFC, symBinAddr: 0x100005194, symSize: 0x10 }
  - { offsetInCU: 0x6685, offset: 0x92FD, size: 0x8, addend: 0x0, symName: __ZNSt3__112__to_addressB7v160006IKcEEPT_S3_, symObjAddr: 0x40C8, symBinAddr: 0x100005260, symSize: 0x14 }
  - { offsetInCU: 0x66ED, offset: 0x9365, size: 0x8, addend: 0x0, symName: __ZNSt3__19use_facetB7v160006INS_5ctypeIcEEEERKT_RKNS_6localeE, symObjAddr: 0x4780, symBinAddr: 0x100005918, symSize: 0x2C }
  - { offsetInCU: 0x6BBC, offset: 0x9834, size: 0x8, addend: 0x0, symName: __ZNSt3__118__constexpr_strlenB7v160006EPKc, symObjAddr: 0x4904, symBinAddr: 0x100005A9C, symSize: 0x24 }
  - { offsetInCU: 0x6BE8, offset: 0x9860, size: 0x8, addend: 0x0, symName: __ZNSt3__13maxB7v160006ImEERKT_S3_S3_, symObjAddr: 0x6760, symBinAddr: 0x1000078F8, symSize: 0x2C }
  - { offsetInCU: 0x6C2B, offset: 0x98A3, size: 0x8, addend: 0x0, symName: __ZNSt3__13minB7v160006ImEERKT_S3_S3_, symObjAddr: 0x678C, symBinAddr: 0x100007924, symSize: 0x2C }
  - { offsetInCU: 0x6E6F, offset: 0x9AE7, size: 0x8, addend: 0x0, symName: __ZNSt3__13minB7v160006ImNS_6__lessImmEEEERKT_S5_S5_T0_, symObjAddr: 0x6818, symBinAddr: 0x1000079B0, symSize: 0x1E8 }
  - { offsetInCU: 0x6F0A, offset: 0x9B82, size: 0x8, addend: 0x0, symName: __ZNSt3__120__throw_length_errorB7v160006EPKc, symObjAddr: 0x6B10, symBinAddr: 0x100007CA8, symSize: 0x68 }
  - { offsetInCU: 0x6F32, offset: 0x9BAA, size: 0x8, addend: 0x0, symName: __ZNSt3__13maxB7v160006ImNS_6__lessImmEEEERKT_S5_S5_T0_, symObjAddr: 0x6C38, symBinAddr: 0x100007DD0, symSize: 0x1E8 }
  - { offsetInCU: 0x6F92, offset: 0x9C0A, size: 0x8, addend: 0x0, symName: __ZNSt3__119__allocate_at_leastB7v160006INS_9allocatorIP7PokemonIiEEEEENS_19__allocation_resultINS_16allocator_traitsIT_E7pointerEEERS8_m, symObjAddr: 0x737C, symBinAddr: 0x100008514, symSize: 0x28C }
  - { offsetInCU: 0x6FD7, offset: 0x9C4F, size: 0x8, addend: 0x0, symName: __ZNSt3__117__libcpp_allocateB7v160006Emm, symObjAddr: 0x77D0, symBinAddr: 0x100008968, symSize: 0x28 }
  - { offsetInCU: 0x7014, offset: 0x9C8C, size: 0x8, addend: 0x0, symName: __ZNSt3__121__libcpp_operator_newB7v160006IJmEEEPvDpT_, symObjAddr: 0x77F8, symBinAddr: 0x100008990, symSize: 0x24 }
  - { offsetInCU: 0x704D, offset: 0x9CC5, size: 0x8, addend: 0x0, symName: __ZNSt3__142__uninitialized_allocator_move_if_noexceptB7v160006INS_9allocatorIP7PokemonIiEEENS_16reverse_iteratorIPS4_EES8_S4_vEET1_RT_T0_SC_S9_, symObjAddr: 0x78C8, symBinAddr: 0x100008A60, symSize: 0x550 }
  - { offsetInCU: 0x70D7, offset: 0x9D4F, size: 0x8, addend: 0x0, symName: __ZNSt3__14swapB7v160006IPP7PokemonIiEEEvRT_S6_, symObjAddr: 0x7EB0, symBinAddr: 0x100009048, symSize: 0x134 }
  - { offsetInCU: 0x7128, offset: 0x9DA0, size: 0x8, addend: 0x0, symName: __ZNSt3__125__debug_db_invalidate_allB7v160006INS_6vectorIP7PokemonIiENS_9allocatorIS4_EEEEEEvPT_, symObjAddr: 0x80B8, symBinAddr: 0x100009250, symSize: 0x10 }
  - { offsetInCU: 0x7159, offset: 0x9DD1, size: 0x8, addend: 0x0, symName: __ZNSt3__1neB7v160006IPP7PokemonIiES4_EEbRKNS_16reverse_iteratorIT_EERKNS5_IT0_EE, symObjAddr: 0x80C8, symBinAddr: 0x100009260, symSize: 0x48 }
  - { offsetInCU: 0x71CA, offset: 0x9E42, size: 0x8, addend: 0x0, symName: __ZNSt3__114__construct_atB7v160006IP7PokemonIiEJS3_EPS3_EEPT_S6_DpOT0_, symObjAddr: 0x8110, symBinAddr: 0x1000092A8, symSize: 0xB8 }
  - { offsetInCU: 0x723A, offset: 0x9EB2, size: 0x8, addend: 0x0, symName: __ZNSt3__112__to_addressB7v160006INS_16reverse_iteratorIPP7PokemonIiEEEvEENS_5decayIDTclsr19__to_address_helperIT_EE6__callclsr3stdE7declvalIRKS8_EEEEE4typeESA_, symObjAddr: 0x81C8, symBinAddr: 0x100009360, symSize: 0x24 }
  - { offsetInCU: 0x7270, offset: 0x9EE8, size: 0x8, addend: 0x0, symName: __ZNSt3__14moveB7v160006INS_16reverse_iteratorIPP7PokemonIiEEES6_EET0_T_S8_S7_, symObjAddr: 0x82CC, symBinAddr: 0x100009464, symSize: 0x4B0 }
  - { offsetInCU: 0x7300, offset: 0x9F78, size: 0x8, addend: 0x0, symName: __ZNSt3__16__moveB7v160006INS_17_ClassicAlgPolicyENS_16reverse_iteratorIPP7PokemonIiEEES7_S7_EENS_4pairIT0_T2_EES9_T1_SA_, symObjAddr: 0x87F8, symBinAddr: 0x100009990, symSize: 0x424 }
  - { offsetInCU: 0x7378, offset: 0x9FF0, size: 0x8, addend: 0x0, symName: __ZNSt3__123__dispatch_copy_or_moveB7v160006INS_17_ClassicAlgPolicyENS_11__move_loopIS1_EENS_14__move_trivialENS_16reverse_iteratorIPP7PokemonIiEEESA_SA_EENS_4pairIT2_T4_EESC_T3_SD_, symObjAddr: 0x8C1C, symBinAddr: 0x100009DB4, symSize: 0x434 }
  - { offsetInCU: 0x7402, offset: 0xA07A, size: 0x8, addend: 0x0, symName: __ZNSt3__121__unwrap_and_dispatchB7v160006INS_10__overloadINS_11__move_loopINS_17_ClassicAlgPolicyEEENS_14__move_trivialEEENS_16reverse_iteratorIPP7PokemonIiEEESC_SC_Li0EEENS_4pairIT0_T2_EESE_T1_SF_, symObjAddr: 0x9050, symBinAddr: 0x10000A1E8, symSize: 0x880 }
  - { offsetInCU: 0x74A7, offset: 0xA11F, size: 0x8, addend: 0x0, symName: __ZNSt3__114__unwrap_rangeB7v160006INS_16reverse_iteratorIPP7PokemonIiEEES6_EENS_4pairIT0_S8_EET_SA_, symObjAddr: 0x98D0, symBinAddr: 0x10000AA68, symSize: 0x448 }
  - { offsetInCU: 0x7603, offset: 0xA27B, size: 0x8, addend: 0x0, symName: __ZNSt3__113__unwrap_iterB7v160006INS_16reverse_iteratorIPP7PokemonIiEEENS_18__unwrap_iter_implIS6_Lb0EEELi0EEEDTclsrT0_8__unwrapclsr3stdE7declvalIT_EEEESA_, symObjAddr: 0xA0C0, symBinAddr: 0x10000B258, symSize: 0x2EC }
  - { offsetInCU: 0x764C, offset: 0xA2C4, size: 0x8, addend: 0x0, symName: __ZNSt3__19make_pairB7v160006INS_16reverse_iteratorIPP7PokemonIiEEES6_EENS_4pairINS_18__unwrap_ref_decayIT_E4typeENS8_IT0_E4typeEEEOS9_OSC_, symObjAddr: 0xA3AC, symBinAddr: 0x10000B544, symSize: 0x38 }
  - { offsetInCU: 0x769B, offset: 0xA313, size: 0x8, addend: 0x0, symName: __ZNSt3__114__rewrap_rangeB7v160006INS_16reverse_iteratorIPP7PokemonIiEEES6_EET_S7_T0_, symObjAddr: 0xA3E4, symBinAddr: 0x10000B57C, symSize: 0x3D4 }
  - { offsetInCU: 0x76EF, offset: 0xA367, size: 0x8, addend: 0x0, symName: __ZNSt3__113__rewrap_iterB7v160006INS_16reverse_iteratorIPP7PokemonIiEEES6_NS_18__unwrap_iter_implIS6_Lb0EEEEET_S9_T0_, symObjAddr: 0xA7B8, symBinAddr: 0x10000B950, symSize: 0x3FC }
  - { offsetInCU: 0x79E0, offset: 0xA658, size: 0x8, addend: 0x0, symName: __ZSt28__throw_bad_array_new_lengthB7v160006v, symObjAddr: 0x7798, symBinAddr: 0x100008930, symSize: 0x38 }
  - { offsetInCU: 0x81AF, offset: 0xAE27, size: 0x8, addend: 0x0, symName: __ZNSt3__16vectorIP7PokemonIiENS_9allocatorIS3_EEE26__swap_out_circular_bufferERNS_14__split_bufferIS3_RS5_EE, symObjAddr: 0x5E78, symBinAddr: 0x100007010, symSize: 0x574 }
  - { offsetInCU: 0x9FDD, offset: 0xCC55, size: 0x8, addend: 0x0, symName: __ZN7TrainerC2ERKNSt3__112basic_stringIcNS0_11char_traitsIcEENS0_9allocatorIcEEEE, symObjAddr: 0x0, symBinAddr: 0x100001198, symSize: 0xE0 }
  - { offsetInCU: 0xA017, offset: 0xCC8F, size: 0x8, addend: 0x0, symName: __ZNSt3__16vectorIP7PokemonIiENS_9allocatorIS3_EEEC1B7v160006Ev, symObjAddr: 0xE0, symBinAddr: 0x100001278, symSize: 0x2C }
  - { offsetInCU: 0xA041, offset: 0xCCB9, size: 0x8, addend: 0x0, symName: __ZNSt3__16vectorIP7PokemonIiENS_9allocatorIS3_EEED1B7v160006Ev, symObjAddr: 0x3C0, symBinAddr: 0x100001558, symSize: 0x2C }
  - { offsetInCU: 0xA06B, offset: 0xCCE3, size: 0x8, addend: 0x0, symName: __ZN7TrainerC1ERKNSt3__112basic_stringIcNS0_11char_traitsIcEENS0_9allocatorIcEEEE, symObjAddr: 0x3F8, symBinAddr: 0x100001590, symSize: 0x34 }
  - { offsetInCU: 0xA0A5, offset: 0xCD1D, size: 0x8, addend: 0x0, symName: __ZN7TrainerD2Ev, symObjAddr: 0x42C, symBinAddr: 0x1000015C4, symSize: 0x1CC }
  - { offsetInCU: 0xA0EE, offset: 0xCD66, size: 0x8, addend: 0x0, symName: __ZNKSt3__16vectorIP7PokemonIiENS_9allocatorIS3_EEE4sizeB7v160006Ev, symObjAddr: 0x5F8, symBinAddr: 0x100001790, symSize: 0xB0 }
  - { offsetInCU: 0xA113, offset: 0xCD8B, size: 0x8, addend: 0x0, symName: __ZNSt3__16vectorIP7PokemonIiENS_9allocatorIS3_EEEixB7v160006Em, symObjAddr: 0x6A8, symBinAddr: 0x100001840, symSize: 0x6C }
  - { offsetInCU: 0xA14B, offset: 0xCDC3, size: 0x8, addend: 0x0, symName: __ZN7PokemonIiED1Ev, symObjAddr: 0x714, symBinAddr: 0x1000018AC, symSize: 0x2C }
  - { offsetInCU: 0xA176, offset: 0xCDEE, size: 0x8, addend: 0x0, symName: __ZNSt3__113basic_ostreamIcNS_11char_traitsIcEEElsB7v160006EPFRS3_S4_E, symObjAddr: 0x740, symBinAddr: 0x1000018D8, symSize: 0x2C }
  - { offsetInCU: 0xA1AA, offset: 0xCE22, size: 0x8, addend: 0x0, symName: __ZN7TrainerD1Ev, symObjAddr: 0x840, symBinAddr: 0x1000019D8, symSize: 0x2C }
  - { offsetInCU: 0xA1D6, offset: 0xCE4E, size: 0x8, addend: 0x0, symName: __ZN7Trainer10addPokemonEP7PokemonIiE, symObjAddr: 0x86C, symBinAddr: 0x100001A04, symSize: 0x1F4 }
  - { offsetInCU: 0xA210, offset: 0xCE88, size: 0x8, addend: 0x0, symName: __ZNSt3__16vectorIP7PokemonIiENS_9allocatorIS3_EEE9push_backB7v160006ERKS3_, symObjAddr: 0xA60, symBinAddr: 0x100001BF8, symSize: 0xE0 }
  - { offsetInCU: 0xA248, offset: 0xCEC0, size: 0x8, addend: 0x0, symName: __ZNK7Trainer15displayPokemonsEv, symObjAddr: 0xB40, symBinAddr: 0x100001CD8, symSize: 0xE0 }
  - { offsetInCU: 0xA28C, offset: 0xCF04, size: 0x8, addend: 0x0, symName: __ZNKSt3__16vectorIP7PokemonIiENS_9allocatorIS3_EEEixB7v160006Em, symObjAddr: 0xC20, symBinAddr: 0x100001DB8, symSize: 0x6C }
  - { offsetInCU: 0xA2C4, offset: 0xCF3C, size: 0x8, addend: 0x0, symName: __ZNK7PokemonIiE7displayEv, symObjAddr: 0xC8C, symBinAddr: 0x100001E24, symSize: 0x204 }
  - { offsetInCU: 0xA2EB, offset: 0xCF63, size: 0x8, addend: 0x0, symName: __ZN7Trainer6battleER7PokemonIiES2_, symObjAddr: 0xE90, symBinAddr: 0x100002028, symSize: 0x63C }
  - { offsetInCU: 0xA332, offset: 0xCFAA, size: 0x8, addend: 0x0, symName: __ZN7PokemonIiE10takeDamageEi, symObjAddr: 0x14CC, symBinAddr: 0x100002664, symSize: 0x1D0 }
  - { offsetInCU: 0xA367, offset: 0xCFDF, size: 0x8, addend: 0x0, symName: __ZNK7PokemonIiE14getAttackPowerEv, symObjAddr: 0x169C, symBinAddr: 0x100002834, symSize: 0x94 }
  - { offsetInCU: 0xA38E, offset: 0xD006, size: 0x8, addend: 0x0, symName: __ZNK7PokemonIiE7getNameEv, symObjAddr: 0x1730, symBinAddr: 0x1000028C8, symSize: 0x38 }
  - { offsetInCU: 0xA3B5, offset: 0xD02D, size: 0x8, addend: 0x0, symName: __ZNK7PokemonIiEntEv, symObjAddr: 0x1768, symBinAddr: 0x100002900, symSize: 0xD4 }
  - { offsetInCU: 0xA3DC, offset: 0xD054, size: 0x8, addend: 0x0, symName: __ZN7PokemonIiE14gainExperienceEi, symObjAddr: 0x183C, symBinAddr: 0x1000029D4, symSize: 0x138 }
  - { offsetInCU: 0xA411, offset: 0xD089, size: 0x8, addend: 0x0, symName: __ZNSt3__16vectorIP7PokemonIiENS_9allocatorIS3_EEEC2B7v160006Ev, symObjAddr: 0x1974, symBinAddr: 0x100002B0C, symSize: 0x2DC }
  - { offsetInCU: 0xA448, offset: 0xD0C0, size: 0x8, addend: 0x0, symName: __ZNSt3__117__compressed_pairIPP7PokemonIiENS_9allocatorIS3_EEEC1B7v160006IDnNS_18__default_init_tagEEEOT_OT0_, symObjAddr: 0x1C50, symBinAddr: 0x100002DE8, symSize: 0x3C }
  - { offsetInCU: 0xA4A0, offset: 0xD118, size: 0x8, addend: 0x0, symName: __ZNSt3__117__compressed_pairIPP7PokemonIiENS_9allocatorIS3_EEEC2B7v160006IDnNS_18__default_init_tagEEEOT_OT0_, symObjAddr: 0x1C9C, symBinAddr: 0x100002E34, symSize: 0x40 }
  - { offsetInCU: 0xA4F8, offset: 0xD170, size: 0x8, addend: 0x0, symName: __ZNSt3__122__compressed_pair_elemIPP7PokemonIiELi0ELb0EEC2B7v160006IDnvEEOT_, symObjAddr: 0x1CDC, symBinAddr: 0x100002E74, symSize: 0x64 }
  - { offsetInCU: 0xA53A, offset: 0xD1B2, size: 0x8, addend: 0x0, symName: __ZNSt3__122__compressed_pair_elemINS_9allocatorIP7PokemonIiEEELi1ELb1EEC2B7v160006ENS_18__default_init_tagE, symObjAddr: 0x1D40, symBinAddr: 0x100002ED8, symSize: 0x2C }
  - { offsetInCU: 0xA56F, offset: 0xD1E7, size: 0x8, addend: 0x0, symName: __ZNSt3__19allocatorIP7PokemonIiEEC2B7v160006Ev, symObjAddr: 0x1D6C, symBinAddr: 0x100002F04, symSize: 0x2C }
  - { offsetInCU: 0xA599, offset: 0xD211, size: 0x8, addend: 0x0, symName: __ZNSt3__116__non_trivial_ifILb1ENS_9allocatorIP7PokemonIiEEEEC2B7v160006Ev, symObjAddr: 0x1D98, symBinAddr: 0x100002F30, symSize: 0x14 }
  - { offsetInCU: 0xA5C3, offset: 0xD23B, size: 0x8, addend: 0x0, symName: __ZNSt3__16vectorIP7PokemonIiENS_9allocatorIS3_EEED2B7v160006Ev, symObjAddr: 0x1DAC, symBinAddr: 0x100002F44, symSize: 0x1E0 }
  - { offsetInCU: 0xA5EE, offset: 0xD266, size: 0x8, addend: 0x0, symName: __ZNSt3__16vectorIP7PokemonIiENS_9allocatorIS3_EEE16__destroy_vectorC1ERS6_, symObjAddr: 0x1F8C, symBinAddr: 0x100003124, symSize: 0x34 }
  - { offsetInCU: 0xA627, offset: 0xD29F, size: 0x8, addend: 0x0, symName: __ZNSt3__16vectorIP7PokemonIiENS_9allocatorIS3_EEE16__destroy_vectorclB7v160006Ev, symObjAddr: 0x1FC0, symBinAddr: 0x100003158, symSize: 0x264 }
  - { offsetInCU: 0xA64D, offset: 0xD2C5, size: 0x8, addend: 0x0, symName: __ZNSt3__16vectorIP7PokemonIiENS_9allocatorIS3_EEE16__destroy_vectorC2ERS6_, symObjAddr: 0x2224, symBinAddr: 0x1000033BC, symSize: 0x70 }
  - { offsetInCU: 0xA686, offset: 0xD2FE, size: 0x8, addend: 0x0, symName: __ZNKSt3__16vectorIP7PokemonIiENS_9allocatorIS3_EEE17__annotate_deleteB7v160006Ev, symObjAddr: 0x2294, symBinAddr: 0x10000342C, symSize: 0xE0 }
  - { offsetInCU: 0xA6AC, offset: 0xD324, size: 0x8, addend: 0x0, symName: __ZNSt3__16vectorIP7PokemonIiENS_9allocatorIS3_EEE7__clearB7v160006Ev, symObjAddr: 0x2384, symBinAddr: 0x10000351C, symSize: 0x64 }
  - { offsetInCU: 0xA6D2, offset: 0xD34A, size: 0x8, addend: 0x0, symName: __ZNSt3__116allocator_traitsINS_9allocatorIP7PokemonIiEEEE10deallocateB7v160006ERS5_PS4_m, symObjAddr: 0x23E8, symBinAddr: 0x100003580, symSize: 0x34 }
  - { offsetInCU: 0xA714, offset: 0xD38C, size: 0x8, addend: 0x0, symName: __ZNSt3__16vectorIP7PokemonIiENS_9allocatorIS3_EEE7__allocB7v160006Ev, symObjAddr: 0x241C, symBinAddr: 0x1000035B4, symSize: 0x28 }
  - { offsetInCU: 0xA73A, offset: 0xD3B2, size: 0x8, addend: 0x0, symName: __ZNKSt3__16vectorIP7PokemonIiENS_9allocatorIS3_EEE8capacityB7v160006Ev, symObjAddr: 0x2444, symBinAddr: 0x1000035DC, symSize: 0xBC }
  - { offsetInCU: 0xA760, offset: 0xD3D8, size: 0x8, addend: 0x0, symName: __ZNKSt3__16vectorIP7PokemonIiENS_9allocatorIS3_EEE31__annotate_contiguous_containerEPKvS8_S8_S8_, symObjAddr: 0x2500, symBinAddr: 0x100003698, symSize: 0x64 }
  - { offsetInCU: 0xA7C2, offset: 0xD43A, size: 0x8, addend: 0x0, symName: __ZNKSt3__16vectorIP7PokemonIiENS_9allocatorIS3_EEE4dataB7v160006Ev, symObjAddr: 0x2564, symBinAddr: 0x1000036FC, symSize: 0x64 }
  - { offsetInCU: 0xA7E8, offset: 0xD460, size: 0x8, addend: 0x0, symName: __ZNSt3__16vectorIP7PokemonIiENS_9allocatorIS3_EEE22__base_destruct_at_endB7v160006EPS3_, symObjAddr: 0x25E8, symBinAddr: 0x100003780, symSize: 0x128 }
  - { offsetInCU: 0xA82C, offset: 0xD4A4, size: 0x8, addend: 0x0, symName: __ZNSt3__116allocator_traitsINS_9allocatorIP7PokemonIiEEEE7destroyB7v160006IS4_vEEvRS5_PT_, symObjAddr: 0x2710, symBinAddr: 0x1000038A8, symSize: 0x2C }
  - { offsetInCU: 0xA869, offset: 0xD4E1, size: 0x8, addend: 0x0, symName: __ZNSt3__19allocatorIP7PokemonIiEE7destroyB7v160006EPS3_, symObjAddr: 0x273C, symBinAddr: 0x1000038D4, symSize: 0x14 }
  - { offsetInCU: 0xA89D, offset: 0xD515, size: 0x8, addend: 0x0, symName: __ZNSt3__19allocatorIP7PokemonIiEE10deallocateB7v160006EPS3_m, symObjAddr: 0x2750, symBinAddr: 0x1000038E8, symSize: 0x7C }
  - { offsetInCU: 0xA8DF, offset: 0xD557, size: 0x8, addend: 0x0, symName: __ZNSt3__117__compressed_pairIPP7PokemonIiENS_9allocatorIS3_EEE6secondB7v160006Ev, symObjAddr: 0x2848, symBinAddr: 0x1000039E0, symSize: 0x24 }
  - { offsetInCU: 0xA905, offset: 0xD57D, size: 0x8, addend: 0x0, symName: __ZNSt3__122__compressed_pair_elemINS_9allocatorIP7PokemonIiEEELi1ELb1EE5__getB7v160006Ev, symObjAddr: 0x286C, symBinAddr: 0x100003A04, symSize: 0x14 }
  - { offsetInCU: 0xA92B, offset: 0xD5A3, size: 0x8, addend: 0x0, symName: __ZNKSt3__16vectorIP7PokemonIiENS_9allocatorIS3_EEE9__end_capB7v160006Ev, symObjAddr: 0x2880, symBinAddr: 0x100003A18, symSize: 0x28 }
  - { offsetInCU: 0xA951, offset: 0xD5C9, size: 0x8, addend: 0x0, symName: __ZNKSt3__117__compressed_pairIPP7PokemonIiENS_9allocatorIS3_EEE5firstB7v160006Ev, symObjAddr: 0x28A8, symBinAddr: 0x100003A40, symSize: 0x24 }
  - { offsetInCU: 0xA977, offset: 0xD5EF, size: 0x8, addend: 0x0, symName: __ZNKSt3__122__compressed_pair_elemIPP7PokemonIiELi0ELb0EE5__getB7v160006Ev, symObjAddr: 0x28CC, symBinAddr: 0x100003A64, symSize: 0x14 }
  - { offsetInCU: 0xA99D, offset: 0xD615, size: 0x8, addend: 0x0, symName: __ZNSt3__111char_traitsIcE6lengthEPKc, symObjAddr: 0x302C, symBinAddr: 0x1000041C4, symSize: 0x54 }
  - { offsetInCU: 0xA9E1, offset: 0xD659, size: 0x8, addend: 0x0, symName: __ZNKSt3__113basic_ostreamIcNS_11char_traitsIcEEE6sentrycvbB7v160006Ev, symObjAddr: 0x3080, symBinAddr: 0x100004218, symSize: 0x88 }
  - { offsetInCU: 0xAA07, offset: 0xD67F, size: 0x8, addend: 0x0, symName: __ZNSt3__119ostreambuf_iteratorIcNS_11char_traitsIcEEEC1B7v160006ERNS_13basic_ostreamIcS2_EE, symObjAddr: 0x387C, symBinAddr: 0x100004A14, symSize: 0x34 }
  - { offsetInCU: 0xAA3E, offset: 0xD6B6, size: 0x8, addend: 0x0, symName: __ZNKSt3__18ios_base5flagsB7v160006Ev, symObjAddr: 0x38B0, symBinAddr: 0x100004A48, symSize: 0x8C }
  - { offsetInCU: 0xAA66, offset: 0xD6DE, size: 0x8, addend: 0x0, symName: __ZNKSt3__19basic_iosIcNS_11char_traitsIcEEE4fillB7v160006Ev, symObjAddr: 0x393C, symBinAddr: 0x100004AD4, symSize: 0x198 }
  - { offsetInCU: 0xAA8F, offset: 0xD707, size: 0x8, addend: 0x0, symName: __ZNKSt3__119ostreambuf_iteratorIcNS_11char_traitsIcEEE6failedB7v160006Ev, symObjAddr: 0x3AD4, symBinAddr: 0x100004C6C, symSize: 0x6C }
  - { offsetInCU: 0xAAB5, offset: 0xD72D, size: 0x8, addend: 0x0, symName: __ZNSt3__19basic_iosIcNS_11char_traitsIcEEE8setstateB7v160006Ej, symObjAddr: 0x3B40, symBinAddr: 0x100004CD8, symSize: 0x2C }
  - { offsetInCU: 0xAAE9, offset: 0xD761, size: 0x8, addend: 0x0, symName: __ZNKSt3__18ios_base5widthB7v160006Ev, symObjAddr: 0x3B6C, symBinAddr: 0x100004D04, symSize: 0x64 }
  - { offsetInCU: 0xAB12, offset: 0xD78A, size: 0x8, addend: 0x0, symName: __ZNSt3__115basic_streambufIcNS_11char_traitsIcEEE5sputnB7v160006EPKcl, symObjAddr: 0x3BD0, symBinAddr: 0x100004D68, symSize: 0xC8 }
  - { offsetInCU: 0xAB54, offset: 0xD7CC, size: 0x8, addend: 0x0, symName: __ZNSt3__112basic_stringIcNS_11char_traitsIcEENS_9allocatorIcEEEC1B7v160006Emc, symObjAddr: 0x3C98, symBinAddr: 0x100004E30, symSize: 0x3C }
  - { offsetInCU: 0xAB9C, offset: 0xD814, size: 0x8, addend: 0x0, symName: __ZNKSt3__112basic_stringIcNS_11char_traitsIcEENS_9allocatorIcEEE4dataB7v160006Ev, symObjAddr: 0x3CD4, symBinAddr: 0x100004E6C, symSize: 0x28 }
  - { offsetInCU: 0xABC1, offset: 0xD839, size: 0x8, addend: 0x0, symName: __ZNSt3__18ios_base5widthB7v160006El, symObjAddr: 0x3CFC, symBinAddr: 0x100004E94, symSize: 0xB8 }
  - { offsetInCU: 0xAC08, offset: 0xD880, size: 0x8, addend: 0x0, symName: __ZNSt3__112basic_stringIcNS_11char_traitsIcEENS_9allocatorIcEEEC2B7v160006Emc, symObjAddr: 0x3DB4, symBinAddr: 0x100004F4C, symSize: 0x20C }
  - { offsetInCU: 0xAC53, offset: 0xD8CB, size: 0x8, addend: 0x0, symName: __ZNSt3__117__compressed_pairINS_12basic_stringIcNS_11char_traitsIcEENS_9allocatorIcEEE5__repES5_EC1B7v160006INS_18__default_init_tagESA_EEOT_OT0_, symObjAddr: 0x3FC0, symBinAddr: 0x100005158, symSize: 0x3C }
  - { offsetInCU: 0xACAB, offset: 0xD923, size: 0x8, addend: 0x0, symName: __ZNSt3__117__compressed_pairINS_12basic_stringIcNS_11char_traitsIcEENS_9allocatorIcEEE5__repES5_EC2B7v160006INS_18__default_init_tagESA_EEOT_OT0_, symObjAddr: 0x400C, symBinAddr: 0x1000051A4, symSize: 0x3C }
  - { offsetInCU: 0xAD03, offset: 0xD97B, size: 0x8, addend: 0x0, symName: __ZNSt3__122__compressed_pair_elemINS_12basic_stringIcNS_11char_traitsIcEENS_9allocatorIcEEE5__repELi0ELb0EEC2B7v160006ENS_18__default_init_tagE, symObjAddr: 0x4048, symBinAddr: 0x1000051E0, symSize: 0x14 }
  - { offsetInCU: 0xAD38, offset: 0xD9B0, size: 0x8, addend: 0x0, symName: __ZNSt3__122__compressed_pair_elemINS_9allocatorIcEELi1ELb1EEC2B7v160006ENS_18__default_init_tagE, symObjAddr: 0x405C, symBinAddr: 0x1000051F4, symSize: 0x2C }
  - { offsetInCU: 0xAD6D, offset: 0xD9E5, size: 0x8, addend: 0x0, symName: __ZNSt3__19allocatorIcEC2B7v160006Ev, symObjAddr: 0x4088, symBinAddr: 0x100005220, symSize: 0x2C }
  - { offsetInCU: 0xAD97, offset: 0xDA0F, size: 0x8, addend: 0x0, symName: __ZNSt3__116__non_trivial_ifILb1ENS_9allocatorIcEEEC2B7v160006Ev, symObjAddr: 0x40B4, symBinAddr: 0x10000524C, symSize: 0x14 }
  - { offsetInCU: 0xADC1, offset: 0xDA39, size: 0x8, addend: 0x0, symName: __ZNKSt3__112basic_stringIcNS_11char_traitsIcEENS_9allocatorIcEEE13__get_pointerB7v160006Ev, symObjAddr: 0x40DC, symBinAddr: 0x100005274, symSize: 0x54 }
  - { offsetInCU: 0xADE7, offset: 0xDA5F, size: 0x8, addend: 0x0, symName: __ZNKSt3__112basic_stringIcNS_11char_traitsIcEENS_9allocatorIcEEE9__is_longB7v160006Ev, symObjAddr: 0x4130, symBinAddr: 0x1000052C8, symSize: 0xE0 }
  - { offsetInCU: 0xAE0D, offset: 0xDA85, size: 0x8, addend: 0x0, symName: __ZNKSt3__112basic_stringIcNS_11char_traitsIcEENS_9allocatorIcEEE18__get_long_pointerB7v160006Ev, symObjAddr: 0x4210, symBinAddr: 0x1000053A8, symSize: 0x6C }
  - { offsetInCU: 0xAE33, offset: 0xDAAB, size: 0x8, addend: 0x0, symName: __ZNKSt3__112basic_stringIcNS_11char_traitsIcEENS_9allocatorIcEEE19__get_short_pointerB7v160006Ev, symObjAddr: 0x427C, symBinAddr: 0x100005414, symSize: 0x28 }
  - { offsetInCU: 0xAE59, offset: 0xDAD1, size: 0x8, addend: 0x0, symName: __ZNKSt3__117__compressed_pairINS_12basic_stringIcNS_11char_traitsIcEENS_9allocatorIcEEE5__repES5_E5firstB7v160006Ev, symObjAddr: 0x42A4, symBinAddr: 0x10000543C, symSize: 0x24 }
  - { offsetInCU: 0xAE7F, offset: 0xDAF7, size: 0x8, addend: 0x0, symName: __ZNKSt3__122__compressed_pair_elemINS_12basic_stringIcNS_11char_traitsIcEENS_9allocatorIcEEE5__repELi0ELb0EE5__getB7v160006Ev, symObjAddr: 0x42C8, symBinAddr: 0x100005460, symSize: 0x14 }
  - { offsetInCU: 0xAEA5, offset: 0xDB1D, size: 0x8, addend: 0x0, symName: __ZNSt3__114pointer_traitsIPKcE10pointer_toB7v160006ERS1_, symObjAddr: 0x42DC, symBinAddr: 0x100005474, symSize: 0x14 }
  - { offsetInCU: 0xAEC8, offset: 0xDB40, size: 0x8, addend: 0x0, symName: __ZNSt3__119ostreambuf_iteratorIcNS_11char_traitsIcEEEC2B7v160006ERNS_13basic_ostreamIcS2_EE, symObjAddr: 0x42F0, symBinAddr: 0x100005488, symSize: 0x120 }
  - { offsetInCU: 0xAEFF, offset: 0xDB77, size: 0x8, addend: 0x0, symName: __ZNKSt3__19basic_iosIcNS_11char_traitsIcEEE5rdbufB7v160006Ev, symObjAddr: 0x4410, symBinAddr: 0x1000055A8, symSize: 0x24 }
  - { offsetInCU: 0xAF28, offset: 0xDBA0, size: 0x8, addend: 0x0, symName: __ZNKSt3__18ios_base5rdbufB7v160006Ev, symObjAddr: 0x4434, symBinAddr: 0x1000055CC, symSize: 0x64 }
  - { offsetInCU: 0xAF4E, offset: 0xDBC6, size: 0x8, addend: 0x0, symName: __ZNSt3__111char_traitsIcE11eq_int_typeEii, symObjAddr: 0x4498, symBinAddr: 0x100005630, symSize: 0x28 }
  - { offsetInCU: 0xAF7F, offset: 0xDBF7, size: 0x8, addend: 0x0, symName: __ZNSt3__111char_traitsIcE3eofEv, symObjAddr: 0x44C0, symBinAddr: 0x100005658, symSize: 0x8 }
  - { offsetInCU: 0xAF92, offset: 0xDC0A, size: 0x8, addend: 0x0, symName: __ZNKSt3__19basic_iosIcNS_11char_traitsIcEEE5widenB7v160006Ec, symObjAddr: 0x44C8, symBinAddr: 0x100005660, symSize: 0x2B8 }
  - { offsetInCU: 0xB003, offset: 0xDC7B, size: 0x8, addend: 0x0, symName: __ZNKSt3__15ctypeIcE5widenB7v160006Ec, symObjAddr: 0x47AC, symBinAddr: 0x100005944, symSize: 0xBC }
  - { offsetInCU: 0xB037, offset: 0xDCAF, size: 0x8, addend: 0x0, symName: __ZNSt3__18ios_base8setstateB7v160006Ej, symObjAddr: 0x4868, symBinAddr: 0x100005A00, symSize: 0x9C }
  - { offsetInCU: 0xB06F, offset: 0xDCE7, size: 0x8, addend: 0x0, symName: __ZNKSt3__112basic_stringIcNS_11char_traitsIcEENS_9allocatorIcEEE4sizeB7v160006Ev, symObjAddr: 0x4928, symBinAddr: 0x100005AC0, symSize: 0x54 }
  - { offsetInCU: 0xB095, offset: 0xDD0D, size: 0x8, addend: 0x0, symName: __ZNKSt3__112basic_stringIcNS_11char_traitsIcEENS_9allocatorIcEEE15__get_long_sizeB7v160006Ev, symObjAddr: 0x497C, symBinAddr: 0x100005B14, symSize: 0x70 }
  - { offsetInCU: 0xB0BB, offset: 0xDD33, size: 0x8, addend: 0x0, symName: __ZNKSt3__112basic_stringIcNS_11char_traitsIcEENS_9allocatorIcEEE16__get_short_sizeB7v160006Ev, symObjAddr: 0x49EC, symBinAddr: 0x100005B84, symSize: 0xA0 }
  - { offsetInCU: 0xB0E1, offset: 0xDD59, size: 0x8, addend: 0x0, symName: __ZN7PokemonIiED2Ev, symObjAddr: 0x4A8C, symBinAddr: 0x100005C24, symSize: 0x110 }
  - { offsetInCU: 0xB10C, offset: 0xDD84, size: 0x8, addend: 0x0, symName: __ZNSt3__16vectorIP7PokemonIiENS_9allocatorIS3_EEE9__end_capB7v160006Ev, symObjAddr: 0x4B9C, symBinAddr: 0x100005D34, symSize: 0x28 }
  - { offsetInCU: 0xB132, offset: 0xDDAA, size: 0x8, addend: 0x0, symName: __ZNSt3__16vectorIP7PokemonIiENS_9allocatorIS3_EEE22__construct_one_at_endB7v160006IJRKS3_EEEvDpOT_, symObjAddr: 0x4BC4, symBinAddr: 0x100005D5C, symSize: 0x380 }
  - { offsetInCU: 0xB186, offset: 0xDDFE, size: 0x8, addend: 0x0, symName: __ZNSt3__16vectorIP7PokemonIiENS_9allocatorIS3_EEE21__push_back_slow_pathIRKS3_EEvOT_, symObjAddr: 0x4F44, symBinAddr: 0x1000060DC, symSize: 0x3D4 }
  - { offsetInCU: 0xB1EC, offset: 0xDE64, size: 0x8, addend: 0x0, symName: __ZNSt3__117__compressed_pairIPP7PokemonIiENS_9allocatorIS3_EEE5firstB7v160006Ev, symObjAddr: 0x5318, symBinAddr: 0x1000064B0, symSize: 0x24 }
  - { offsetInCU: 0xB212, offset: 0xDE8A, size: 0x8, addend: 0x0, symName: __ZNSt3__122__compressed_pair_elemIPP7PokemonIiELi0ELb0EE5__getB7v160006Ev, symObjAddr: 0x533C, symBinAddr: 0x1000064D4, symSize: 0x14 }
  - { offsetInCU: 0xB253, offset: 0xDECB, size: 0x8, addend: 0x0, symName: __ZNSt3__16vectorIP7PokemonIiENS_9allocatorIS3_EEE21_ConstructTransactionC1B7v160006ERS6_m, symObjAddr: 0x5350, symBinAddr: 0x1000064E8, symSize: 0x3C }
  - { offsetInCU: 0xB29B, offset: 0xDF13, size: 0x8, addend: 0x0, symName: __ZNSt3__116allocator_traitsINS_9allocatorIP7PokemonIiEEEE9constructB7v160006IS4_JRKS4_EvEEvRS5_PT_DpOT0_, symObjAddr: 0x538C, symBinAddr: 0x100006524, symSize: 0x34 }
  - { offsetInCU: 0xB2F2, offset: 0xDF6A, size: 0x8, addend: 0x0, symName: __ZNSt3__16vectorIP7PokemonIiENS_9allocatorIS3_EEE21_ConstructTransactionD1B7v160006Ev, symObjAddr: 0x53C0, symBinAddr: 0x100006558, symSize: 0x2C }
  - { offsetInCU: 0xB31C, offset: 0xDF94, size: 0x8, addend: 0x0, symName: __ZNSt3__16vectorIP7PokemonIiENS_9allocatorIS3_EEE21_ConstructTransactionC2B7v160006ERS6_m, symObjAddr: 0x53EC, symBinAddr: 0x100006584, symSize: 0x1D0 }
  - { offsetInCU: 0xB364, offset: 0xDFDC, size: 0x8, addend: 0x0, symName: __ZNKSt3__16vectorIP7PokemonIiENS_9allocatorIS3_EEE19__annotate_increaseB7v160006Em, symObjAddr: 0x55BC, symBinAddr: 0x100006754, symSize: 0xEC }
  - { offsetInCU: 0xB399, offset: 0xE011, size: 0x8, addend: 0x0, symName: __ZNSt3__19allocatorIP7PokemonIiEE9constructB7v160006IS3_JRKS3_EEEvPT_DpOT0_, symObjAddr: 0x56A8, symBinAddr: 0x100006840, symSize: 0xB4 }
  - { offsetInCU: 0xB3EF, offset: 0xE067, size: 0x8, addend: 0x0, symName: __ZNSt3__16vectorIP7PokemonIiENS_9allocatorIS3_EEE21_ConstructTransactionD2B7v160006Ev, symObjAddr: 0x575C, symBinAddr: 0x1000068F4, symSize: 0x278 }
  - { offsetInCU: 0xB419, offset: 0xE091, size: 0x8, addend: 0x0, symName: __ZNKSt3__16vectorIP7PokemonIiENS_9allocatorIS3_EEE17__annotate_shrinkB7v160006Em, symObjAddr: 0x59D4, symBinAddr: 0x100006B6C, symSize: 0xDC }
  - { offsetInCU: 0xB44D, offset: 0xE0C5, size: 0x8, addend: 0x0, symName: __ZNKSt3__16vectorIP7PokemonIiENS_9allocatorIS3_EEE11__recommendB7v160006Em, symObjAddr: 0x5AB0, symBinAddr: 0x100006C48, symSize: 0x384 }
  - { offsetInCU: 0xB4AA, offset: 0xE122, size: 0x8, addend: 0x0, symName: __ZNSt3__114__split_bufferIP7PokemonIiERNS_9allocatorIS3_EEEC1EmmS6_, symObjAddr: 0x5E34, symBinAddr: 0x100006FCC, symSize: 0x44 }
  - { offsetInCU: 0xB500, offset: 0xE178, size: 0x8, addend: 0x0, symName: __ZNSt3__114__split_bufferIP7PokemonIiERNS_9allocatorIS3_EEED1Ev, symObjAddr: 0x63EC, symBinAddr: 0x100007584, symSize: 0x2C }
  - { offsetInCU: 0xB52B, offset: 0xE1A3, size: 0x8, addend: 0x0, symName: __ZNKSt3__16vectorIP7PokemonIiENS_9allocatorIS3_EEE8max_sizeEv, symObjAddr: 0x6418, symBinAddr: 0x1000075B0, symSize: 0x328 }
  - { offsetInCU: 0xB555, offset: 0xE1CD, size: 0x8, addend: 0x0, symName: __ZNKSt3__16vectorIP7PokemonIiENS_9allocatorIS3_EEE20__throw_length_errorB7v160006Ev, symObjAddr: 0x6740, symBinAddr: 0x1000078D8, symSize: 0x20 }
  - { offsetInCU: 0xB586, offset: 0xE1FE, size: 0x8, addend: 0x0, symName: __ZNSt3__116allocator_traitsINS_9allocatorIP7PokemonIiEEEE8max_sizeB7v160006IS5_vEEmRKS5_, symObjAddr: 0x67B8, symBinAddr: 0x100007950, symSize: 0x24 }
  - { offsetInCU: 0xB5B4, offset: 0xE22C, size: 0x8, addend: 0x0, symName: __ZNKSt3__16vectorIP7PokemonIiENS_9allocatorIS3_EEE7__allocB7v160006Ev, symObjAddr: 0x67DC, symBinAddr: 0x100007974, symSize: 0x28 }
  - { offsetInCU: 0xB5DA, offset: 0xE252, size: 0x8, addend: 0x0, symName: __ZNSt3__114numeric_limitsIlE3maxB7v160006Ev, symObjAddr: 0x6804, symBinAddr: 0x10000799C, symSize: 0x14 }
  - { offsetInCU: 0xB603, offset: 0xE27B, size: 0x8, addend: 0x0, symName: __ZNKSt3__16__lessImmEclB7v160006ERKmS3_, symObjAddr: 0x6A00, symBinAddr: 0x100007B98, symSize: 0xBC }
  - { offsetInCU: 0xB645, offset: 0xE2BD, size: 0x8, addend: 0x0, symName: __ZNKSt3__19allocatorIP7PokemonIiEE8max_sizeB7v160006Ev, symObjAddr: 0x6ABC, symBinAddr: 0x100007C54, symSize: 0x14 }
  - { offsetInCU: 0xB66B, offset: 0xE2E3, size: 0x8, addend: 0x0, symName: __ZNKSt3__117__compressed_pairIPP7PokemonIiENS_9allocatorIS3_EEE6secondB7v160006Ev, symObjAddr: 0x6AD0, symBinAddr: 0x100007C68, symSize: 0x24 }
  - { offsetInCU: 0xB691, offset: 0xE309, size: 0x8, addend: 0x0, symName: __ZNKSt3__122__compressed_pair_elemINS_9allocatorIP7PokemonIiEEELi1ELb1EE5__getB7v160006Ev, symObjAddr: 0x6AF4, symBinAddr: 0x100007C8C, symSize: 0x14 }
  - { offsetInCU: 0xB6B7, offset: 0xE32F, size: 0x8, addend: 0x0, symName: __ZNSt3__123__libcpp_numeric_limitsIlLb1EE3maxB7v160006Ev, symObjAddr: 0x6B08, symBinAddr: 0x100007CA0, symSize: 0x8 }
  - { offsetInCU: 0xB6CB, offset: 0xE343, size: 0x8, addend: 0x0, symName: __ZNSt12length_errorC1B7v160006EPKc, symObjAddr: 0x6B78, symBinAddr: 0x100007D10, symSize: 0x34 }
  - { offsetInCU: 0xB703, offset: 0xE37B, size: 0x8, addend: 0x0, symName: __ZNSt12length_errorC2B7v160006EPKc, symObjAddr: 0x6BAC, symBinAddr: 0x100007D44, symSize: 0x8C }
  - { offsetInCU: 0xB73B, offset: 0xE3B3, size: 0x8, addend: 0x0, symName: __ZNSt3__114__split_bufferIP7PokemonIiERNS_9allocatorIS3_EEEC2EmmS6_, symObjAddr: 0x6E20, symBinAddr: 0x100007FB8, symSize: 0x520 }
  - { offsetInCU: 0xB7B7, offset: 0xE42F, size: 0x8, addend: 0x0, symName: __ZNSt3__117__compressed_pairIPP7PokemonIiERNS_9allocatorIS3_EEEC1B7v160006IDnS7_EEOT_OT0_, symObjAddr: 0x7340, symBinAddr: 0x1000084D8, symSize: 0x3C }
  - { offsetInCU: 0xB80F, offset: 0xE487, size: 0x8, addend: 0x0, symName: __ZNSt3__114__split_bufferIP7PokemonIiERNS_9allocatorIS3_EEE7__allocB7v160006Ev, symObjAddr: 0x7608, symBinAddr: 0x1000087A0, symSize: 0x28 }
  - { offsetInCU: 0xB835, offset: 0xE4AD, size: 0x8, addend: 0x0, symName: __ZNSt3__114__split_bufferIP7PokemonIiERNS_9allocatorIS3_EEE9__end_capB7v160006Ev, symObjAddr: 0x7630, symBinAddr: 0x1000087C8, symSize: 0x28 }
  - { offsetInCU: 0xB85B, offset: 0xE4D3, size: 0x8, addend: 0x0, symName: __ZNSt3__117__compressed_pairIPP7PokemonIiERNS_9allocatorIS3_EEEC2B7v160006IDnS7_EEOT_OT0_, symObjAddr: 0x7658, symBinAddr: 0x1000087F0, symSize: 0x48 }
  - { offsetInCU: 0xB8B3, offset: 0xE52B, size: 0x8, addend: 0x0, symName: __ZNSt3__122__compressed_pair_elemIRNS_9allocatorIP7PokemonIiEEELi1ELb0EEC2B7v160006IS6_vEEOT_, symObjAddr: 0x76A0, symBinAddr: 0x100008838, symSize: 0x70 }
  - { offsetInCU: 0xB8F5, offset: 0xE56D, size: 0x8, addend: 0x0, symName: __ZNSt3__19allocatorIP7PokemonIiEE8allocateB7v160006Em, symObjAddr: 0x7710, symBinAddr: 0x1000088A8, symSize: 0x88 }
  - { offsetInCU: 0xB929, offset: 0xE5A1, size: 0x8, addend: 0x0, symName: __ZNSt3__117__compressed_pairIPP7PokemonIiERNS_9allocatorIS3_EEE6secondB7v160006Ev, symObjAddr: 0x781C, symBinAddr: 0x1000089B4, symSize: 0x28 }
  - { offsetInCU: 0xB94F, offset: 0xE5C7, size: 0x8, addend: 0x0, symName: __ZNSt3__122__compressed_pair_elemIRNS_9allocatorIP7PokemonIiEEELi1ELb0EE5__getB7v160006Ev, symObjAddr: 0x7844, symBinAddr: 0x1000089DC, symSize: 0x60 }
  - { offsetInCU: 0xB975, offset: 0xE5ED, size: 0x8, addend: 0x0, symName: __ZNSt3__117__compressed_pairIPP7PokemonIiERNS_9allocatorIS3_EEE5firstB7v160006Ev, symObjAddr: 0x78A4, symBinAddr: 0x100008A3C, symSize: 0x24 }
  - { offsetInCU: 0xB99B, offset: 0xE613, size: 0x8, addend: 0x0, symName: __ZNSt3__116reverse_iteratorIPP7PokemonIiEEC1B7v160006ES4_, symObjAddr: 0x7E18, symBinAddr: 0x100008FB0, symSize: 0x34 }
  - { offsetInCU: 0xB9D3, offset: 0xE64B, size: 0x8, addend: 0x0, symName: __ZNKSt3__116reverse_iteratorIPP7PokemonIiEE4baseB7v160006Ev, symObjAddr: 0x7E4C, symBinAddr: 0x100008FE4, symSize: 0x64 }
  - { offsetInCU: 0xB9F9, offset: 0xE671, size: 0x8, addend: 0x0, symName: __ZNKSt3__16vectorIP7PokemonIiENS_9allocatorIS3_EEE14__annotate_newB7v160006Em, symObjAddr: 0x7FE4, symBinAddr: 0x10000917C, symSize: 0xD4 }
  - { offsetInCU: 0xBA2E, offset: 0xE6A6, size: 0x8, addend: 0x0, symName: __ZNKSt3__116reverse_iteratorIPP7PokemonIiEEdeB7v160006Ev, symObjAddr: 0x81EC, symBinAddr: 0x100009384, symSize: 0x74 }
  - { offsetInCU: 0xBA62, offset: 0xE6DA, size: 0x8, addend: 0x0, symName: __ZNSt3__116reverse_iteratorIPP7PokemonIiEEppB7v160006Ev, symObjAddr: 0x8260, symBinAddr: 0x1000093F8, symSize: 0x6C }
  - { offsetInCU: 0xBA8E, offset: 0xE706, size: 0x8, addend: 0x0, symName: __ZNSt3__119__to_address_helperINS_16reverse_iteratorIPP7PokemonIiEEEvE6__callB7v160006ERKS6_, symObjAddr: 0x877C, symBinAddr: 0x100009914, symSize: 0x58 }
  - { offsetInCU: 0xBAB1, offset: 0xE729, size: 0x8, addend: 0x0, symName: __ZNKSt3__116reverse_iteratorIPP7PokemonIiEEptB7v160006Ev, symObjAddr: 0x87D4, symBinAddr: 0x10000996C, symSize: 0x24 }
  - { offsetInCU: 0xBAFD, offset: 0xE775, size: 0x8, addend: 0x0, symName: __ZNKSt3__111__move_loopINS_17_ClassicAlgPolicyEEclB7v160006INS_16reverse_iteratorIPP7PokemonIiEEES9_S9_EENS_4pairIT_T1_EESB_T0_SC_, symObjAddr: 0x9D18, symBinAddr: 0x10000AEB0, symSize: 0x3A8 }
  - { offsetInCU: 0xBB7B, offset: 0xE7F3, size: 0x8, addend: 0x0, symName: __ZNSt3__18_IterOpsINS_17_ClassicAlgPolicyEE11__iter_moveB7v160006IRNS_16reverse_iteratorIPP7PokemonIiEEEEENS_9enable_ifIXsr12is_referenceIDTdeclsr3stdE7declvalIRT_EEEEE5valueEDTclsr3stdE4movedeclsr3stdE7declvalISD_EEEEE4typeEOSC_, symObjAddr: 0xABB4, symBinAddr: 0x10000BD4C, symSize: 0x28 }
  - { offsetInCU: 0xBBA7, offset: 0xE81F, size: 0x8, addend: 0x0, symName: __ZNSt3__18_IterOpsINS_17_ClassicAlgPolicyEE25__validate_iter_referenceB7v160006IRNS_16reverse_iteratorIPP7PokemonIiEEEEEvv, symObjAddr: 0xABDC, symBinAddr: 0x10000BD74, symSize: 0x4 }
  - { offsetInCU: 0xBBC5, offset: 0xE83D, size: 0x8, addend: 0x0, symName: __ZNSt3__118__unwrap_iter_implINS_16reverse_iteratorIPP7PokemonIiEEELb0EE8__unwrapB7v160006ES6_, symObjAddr: 0xABE0, symBinAddr: 0x10000BD78, symSize: 0x274 }
  - { offsetInCU: 0xBBEC, offset: 0xE864, size: 0x8, addend: 0x0, symName: __ZNSt3__14pairINS_16reverse_iteratorIPP7PokemonIiEEES6_EC1B7v160006ERKS6_S9_, symObjAddr: 0xAE54, symBinAddr: 0x10000BFEC, symSize: 0x3C }
  - { offsetInCU: 0xBC32, offset: 0xE8AA, size: 0x8, addend: 0x0, symName: __ZNSt3__14pairINS_16reverse_iteratorIPP7PokemonIiEEES6_EC2B7v160006ERKS6_S9_, symObjAddr: 0xAE90, symBinAddr: 0x10000C028, symSize: 0x54 }
  - { offsetInCU: 0xBC78, offset: 0xE8F0, size: 0x8, addend: 0x0, symName: __ZNSt3__118__unwrap_iter_implINS_16reverse_iteratorIPP7PokemonIiEEELb0EE8__rewrapB7v160006ES6_S6_, symObjAddr: 0xAEE4, symBinAddr: 0x10000C07C, symSize: 0x2E0 }
  - { offsetInCU: 0xBCAE, offset: 0xE926, size: 0x8, addend: 0x0, symName: __ZNSt3__116reverse_iteratorIPP7PokemonIiEEC2B7v160006ES4_, symObjAddr: 0xB1C4, symBinAddr: 0x10000C35C, symSize: 0xB8 }
  - { offsetInCU: 0xBCE6, offset: 0xE95E, size: 0x8, addend: 0x0, symName: __ZNSt3__114__split_bufferIP7PokemonIiERNS_9allocatorIS3_EEED2Ev, symObjAddr: 0xB27C, symBinAddr: 0x10000C414, symSize: 0xEC }
  - { offsetInCU: 0xBD12, offset: 0xE98A, size: 0x8, addend: 0x0, symName: __ZNSt3__114__split_bufferIP7PokemonIiERNS_9allocatorIS3_EEE5clearB7v160006Ev, symObjAddr: 0xB368, symBinAddr: 0x10000C500, symSize: 0x68 }
  - { offsetInCU: 0xBD38, offset: 0xE9B0, size: 0x8, addend: 0x0, symName: __ZNKSt3__114__split_bufferIP7PokemonIiERNS_9allocatorIS3_EEE8capacityB7v160006Ev, symObjAddr: 0xB3D0, symBinAddr: 0x10000C568, symSize: 0xBC }
  - { offsetInCU: 0xBD5E, offset: 0xE9D6, size: 0x8, addend: 0x0, symName: __ZNSt3__114__split_bufferIP7PokemonIiERNS_9allocatorIS3_EEE17__destruct_at_endB7v160006EPS3_, symObjAddr: 0xB48C, symBinAddr: 0x10000C624, symSize: 0x2C }
  - { offsetInCU: 0xBD91, offset: 0xEA09, size: 0x8, addend: 0x0, symName: __ZNSt3__114__split_bufferIP7PokemonIiERNS_9allocatorIS3_EEE17__destruct_at_endB7v160006EPS3_NS_17integral_constantIbLb0EEE, symObjAddr: 0xB4B8, symBinAddr: 0x10000C650, symSize: 0x120 }
  - { offsetInCU: 0xBDD3, offset: 0xEA4B, size: 0x8, addend: 0x0, symName: __ZNKSt3__114__split_bufferIP7PokemonIiERNS_9allocatorIS3_EEE9__end_capB7v160006Ev, symObjAddr: 0xB5D8, symBinAddr: 0x10000C770, symSize: 0x28 }
  - { offsetInCU: 0xBDF9, offset: 0xEA71, size: 0x8, addend: 0x0, symName: __ZNKSt3__117__compressed_pairIPP7PokemonIiERNS_9allocatorIS3_EEE5firstB7v160006Ev, symObjAddr: 0xB600, symBinAddr: 0x10000C798, symSize: 0x24 }
  - { offsetInCU: 0xBE1F, offset: 0xEA97, size: 0x8, addend: 0x0, symName: __ZNK7PokemonIiE18requiredExperienceEv, symObjAddr: 0xB624, symBinAddr: 0x10000C7BC, symSize: 0x94 }
  - { offsetInCU: 0xBE46, offset: 0xEABE, size: 0x8, addend: 0x0, symName: __ZN7PokemonIiE7levelUpEv, symObjAddr: 0xB6B8, symBinAddr: 0x10000C850, symSize: 0x14C }
  - { offsetInCU: 0x3B, offset: 0xEBE9, size: 0x8, addend: 0x0, symName: _.str, symObjAddr: 0xB9E0, symBinAddr: 0x1000163C0, symSize: 0x0 }
  - { offsetInCU: 0x6B, offset: 0xEC19, size: 0x8, addend: 0x0, symName: _.str.1, symObjAddr: 0xBA00, symBinAddr: 0x1000163E0, symSize: 0x0 }
  - { offsetInCU: 0x88, offset: 0xEC36, size: 0x8, addend: 0x0, symName: _.str.2, symObjAddr: 0xBA20, symBinAddr: 0x100016400, symSize: 0x0 }
  - { offsetInCU: 0xA5, offset: 0xEC53, size: 0x8, addend: 0x0, symName: _.str.3, symObjAddr: 0xBA40, symBinAddr: 0x100016420, symSize: 0x0 }
  - { offsetInCU: 0xC2, offset: 0xEC70, size: 0x8, addend: 0x0, symName: _.str.4, symObjAddr: 0xBA60, symBinAddr: 0x100016440, symSize: 0x0 }
  - { offsetInCU: 0xDF, offset: 0xEC8D, size: 0x8, addend: 0x0, symName: _.str.5, symObjAddr: 0xBA80, symBinAddr: 0x100016460, symSize: 0x0 }
  - { offsetInCU: 0xF0, offset: 0xEC9E, size: 0x8, addend: 0x0, symName: _.str.6, symObjAddr: 0xBAA0, symBinAddr: 0x100016480, symSize: 0x0 }
  - { offsetInCU: 0x10D, offset: 0xECBB, size: 0x8, addend: 0x0, symName: _.str.7, symObjAddr: 0xBB00, symBinAddr: 0x1000164E0, symSize: 0x0 }
  - { offsetInCU: 0x12A, offset: 0xECD8, size: 0x8, addend: 0x0, symName: _.str.8, symObjAddr: 0xBB60, symBinAddr: 0x100016540, symSize: 0x0 }
  - { offsetInCU: 0x147, offset: 0xECF5, size: 0x8, addend: 0x0, symName: _.str.9, symObjAddr: 0xBBA0, symBinAddr: 0x100016580, symSize: 0x0 }
  - { offsetInCU: 0x164, offset: 0xED12, size: 0x8, addend: 0x0, symName: _.str.10, symObjAddr: 0xBBC0, symBinAddr: 0x1000165A0, symSize: 0x0 }
  - { offsetInCU: 0x181, offset: 0xED2F, size: 0x8, addend: 0x0, symName: _.str.11, symObjAddr: 0xBC00, symBinAddr: 0x1000165E0, symSize: 0x0 }
  - { offsetInCU: 0x19E, offset: 0xED4C, size: 0x8, addend: 0x0, symName: _.str.12, symObjAddr: 0xBC60, symBinAddr: 0x100016640, symSize: 0x0 }
  - { offsetInCU: 0x1BB, offset: 0xED69, size: 0x8, addend: 0x0, symName: _.str.13, symObjAddr: 0xBCC0, symBinAddr: 0x1000166A0, symSize: 0x0 }
  - { offsetInCU: 0x1D8, offset: 0xED86, size: 0x8, addend: 0x0, symName: _.str.14, symObjAddr: 0xBD20, symBinAddr: 0x100016700, symSize: 0x0 }
  - { offsetInCU: 0x1F5, offset: 0xEDA3, size: 0x8, addend: 0x0, symName: _.str.15, symObjAddr: 0xBD80, symBinAddr: 0x100016760, symSize: 0x0 }
  - { offsetInCU: 0x212, offset: 0xEDC0, size: 0x8, addend: 0x0, symName: _.str.16, symObjAddr: 0xBDC0, symBinAddr: 0x1000167A0, symSize: 0x0 }
  - { offsetInCU: 0x22F, offset: 0xEDDD, size: 0x8, addend: 0x0, symName: _.str.17, symObjAddr: 0xBE20, symBinAddr: 0x100016800, symSize: 0x0 }
  - { offsetInCU: 0x240, offset: 0xEDEE, size: 0x8, addend: 0x0, symName: _.str.18, symObjAddr: 0xBE60, symBinAddr: 0x100016840, symSize: 0x0 }
  - { offsetInCU: 0x251, offset: 0xEDFF, size: 0x8, addend: 0x0, symName: _.str.19, symObjAddr: 0xBEC0, symBinAddr: 0x1000168A0, symSize: 0x0 }
  - { offsetInCU: 0x26E, offset: 0xEE1C, size: 0x8, addend: 0x0, symName: _.str.20, symObjAddr: 0xBF00, symBinAddr: 0x1000168E0, symSize: 0x0 }
  - { offsetInCU: 0x27F, offset: 0xEE2D, size: 0x8, addend: 0x0, symName: _.str.21, symObjAddr: 0xBF20, symBinAddr: 0x100016900, symSize: 0x0 }
  - { offsetInCU: 0x290, offset: 0xEE3E, size: 0x8, addend: 0x0, symName: _.str.22, symObjAddr: 0xBF60, symBinAddr: 0x100016940, symSize: 0x0 }
  - { offsetInCU: 0x2A1, offset: 0xEE4F, size: 0x8, addend: 0x0, symName: _.str.23, symObjAddr: 0xBFC0, symBinAddr: 0x1000169A0, symSize: 0x0 }
  - { offsetInCU: 0x2BE, offset: 0xEE6C, size: 0x8, addend: 0x0, symName: _.str.24, symObjAddr: 0xC420, symBinAddr: 0x100017B20, symSize: 0x0 }
  - { offsetInCU: 0x2DB, offset: 0xEE89, size: 0x8, addend: 0x0, symName: _.str.25, symObjAddr: 0xC020, symBinAddr: 0x100016A00, symSize: 0x0 }
  - { offsetInCU: 0x2EC, offset: 0xEE9A, size: 0x8, addend: 0x0, symName: _.str.26, symObjAddr: 0xC040, symBinAddr: 0x100016A20, symSize: 0x0 }
  - { offsetInCU: 0x309, offset: 0xEEB7, size: 0x8, addend: 0x0, symName: _.str.27, symObjAddr: 0xC080, symBinAddr: 0x100016A60, symSize: 0x0 }
  - { offsetInCU: 0x326, offset: 0xEED4, size: 0x8, addend: 0x0, symName: _.str.28, symObjAddr: 0xC0C0, symBinAddr: 0x100016AA0, symSize: 0x0 }
  - { offsetInCU: 0x337, offset: 0xEEE5, size: 0x8, addend: 0x0, symName: _.str.29, symObjAddr: 0xC120, symBinAddr: 0x100016B00, symSize: 0x0 }
  - { offsetInCU: 0x354, offset: 0xEF02, size: 0x8, addend: 0x0, symName: _.str.30, symObjAddr: 0xC180, symBinAddr: 0x100016B60, symSize: 0x0 }
  - { offsetInCU: 0x371, offset: 0xEF1F, size: 0x8, addend: 0x0, symName: _.str.31, symObjAddr: 0xC1C0, symBinAddr: 0x100016BA0, symSize: 0x0 }
  - { offsetInCU: 0x38F, offset: 0xEF3D, size: 0x8, addend: 0x0, symName: _.str.32, symObjAddr: 0xC220, symBinAddr: 0x100016C00, symSize: 0x0 }
  - { offsetInCU: 0x3AC, offset: 0xEF5A, size: 0x8, addend: 0x0, symName: _.str.33, symObjAddr: 0xC240, symBinAddr: 0x100016C20, symSize: 0x0 }
  - { offsetInCU: 0x3C9, offset: 0xEF77, size: 0x8, addend: 0x0, symName: _.str.34, symObjAddr: 0xC280, symBinAddr: 0x100016C60, symSize: 0x0 }
  - { offsetInCU: 0x3DA, offset: 0xEF88, size: 0x8, addend: 0x0, symName: _.str.35, symObjAddr: 0xC2E0, symBinAddr: 0x100016CC0, symSize: 0x0 }
  - { offsetInCU: 0x3F7, offset: 0xEFA5, size: 0x8, addend: 0x0, symName: _.str.36, symObjAddr: 0xC300, symBinAddr: 0x100016CE0, symSize: 0x0 }
  - { offsetInCU: 0x408, offset: 0xEFB6, size: 0x8, addend: 0x0, symName: _.str.37, symObjAddr: 0xC320, symBinAddr: 0x100016D00, symSize: 0x0 }
  - { offsetInCU: 0x425, offset: 0xEFD3, size: 0x8, addend: 0x0, symName: _.str.38, symObjAddr: 0xC340, symBinAddr: 0x100016D20, symSize: 0x0 }
  - { offsetInCU: 0x436, offset: 0xEFE4, size: 0x8, addend: 0x0, symName: _.str.39, symObjAddr: 0xC360, symBinAddr: 0x100016D40, symSize: 0x0 }
  - { offsetInCU: 0x447, offset: 0xEFF5, size: 0x8, addend: 0x0, symName: _.str.40, symObjAddr: 0xC380, symBinAddr: 0x100016D60, symSize: 0x0 }
  - { offsetInCU: 0x465, offset: 0xF013, size: 0x8, addend: 0x0, symName: _.str.41, symObjAddr: 0xC3C0, symBinAddr: 0x100016DA0, symSize: 0x0 }
  - { offsetInCU: 0x477, offset: 0xF025, size: 0x8, addend: 0x0, symName: _.str.42, symObjAddr: 0xC3E0, symBinAddr: 0x100016DC0, symSize: 0x0 }
  - { offsetInCU: 0x3861, offset: 0x1240F, size: 0x8, addend: 0x0, symName: __ZNSt3__16copy_nB7v160006IPKcmPcEENS_9enable_ifIXsr33__is_cpp17_random_access_iteratorIT_EE5valueET1_E4typeES5_T0_S6_, symObjAddr: 0x7360, symBinAddr: 0x10001160C, symSize: 0x44 }
  - { offsetInCU: 0x45DB, offset: 0x13189, size: 0x8, addend: 0x0, symName: __ZNSt3__1eqB7v160006INS_9allocatorIcEEEEbRKNS_12basic_stringIcNS_11char_traitsIcEET_EES9_, symObjAddr: 0x2668, symBinAddr: 0x10000EEC4, symSize: 0x234 }
  - { offsetInCU: 0x464E, offset: 0x131FC, size: 0x8, addend: 0x0, symName: __ZNSt3__1plB7v160006IcNS_11char_traitsIcEENS_9allocatorIcEEEENS_12basic_stringIT_T0_T1_EERKS9_SB_, symObjAddr: 0x62F0, symBinAddr: 0x100010828, symSize: 0x2F8 }
  - { offsetInCU: 0x46F5, offset: 0x132A3, size: 0x8, addend: 0x0, symName: __ZNSt3__112__to_addressB7v160006IcEEPT_S2_, symObjAddr: 0x66AC, symBinAddr: 0x100010B90, symSize: 0x14 }
  - { offsetInCU: 0x495F, offset: 0x1350D, size: 0x8, addend: 0x0, symName: __ZNSt3__14copyB7v160006IPKcPcEET0_T_S5_S4_, symObjAddr: 0x73A4, symBinAddr: 0x100011650, symSize: 0x254 }
  - { offsetInCU: 0x49BC, offset: 0x1356A, size: 0x8, addend: 0x0, symName: __ZNSt3__16__copyB7v160006INS_17_ClassicAlgPolicyEPKcS3_PcEENS_4pairIT0_T2_EES6_T1_S7_, symObjAddr: 0x75F8, symBinAddr: 0x1000118A4, symSize: 0x22C }
  - { offsetInCU: 0x4A2B, offset: 0x135D9, size: 0x8, addend: 0x0, symName: __ZNSt3__123__dispatch_copy_or_moveB7v160006INS_17_ClassicAlgPolicyENS_11__copy_loopIS1_EENS_14__copy_trivialEPKcS6_PcEENS_4pairIT2_T4_EES9_T3_SA_, symObjAddr: 0x7824, symBinAddr: 0x100011AD0, symSize: 0x23C }
  - { offsetInCU: 0x4AAC, offset: 0x1365A, size: 0x8, addend: 0x0, symName: __ZNSt3__121__unwrap_and_dispatchB7v160006INS_10__overloadINS_11__copy_loopINS_17_ClassicAlgPolicyEEENS_14__copy_trivialEEEPKcS8_PcLi0EEENS_4pairIT0_T2_EESB_T1_SC_, symObjAddr: 0x7A60, symBinAddr: 0x100011D0C, symSize: 0x5A4 }
  - { offsetInCU: 0x4B46, offset: 0x136F4, size: 0x8, addend: 0x0, symName: __ZNSt3__114__unwrap_rangeB7v160006IPKcS2_EENS_4pairIT0_S4_EET_S6_, symObjAddr: 0x8004, symBinAddr: 0x1000122B0, symSize: 0x350 }
  - { offsetInCU: 0x4C88, offset: 0x13836, size: 0x8, addend: 0x0, symName: __ZNSt3__113__unwrap_iterB7v160006IPcNS_18__unwrap_iter_implIS1_Lb1EEELi0EEEDTclsrT0_8__unwrapclsr3stdE7declvalIT_EEEES5_, symObjAddr: 0x8584, symBinAddr: 0x100012830, symSize: 0x24 }
  - { offsetInCU: 0x4CCD, offset: 0x1387B, size: 0x8, addend: 0x0, symName: __ZNSt3__19make_pairB7v160006IPKcPcEENS_4pairINS_18__unwrap_ref_decayIT_E4typeENS5_IT0_E4typeEEEOS6_OS9_, symObjAddr: 0x85A8, symBinAddr: 0x100012854, symSize: 0x20C }
  - { offsetInCU: 0x4D1E, offset: 0x138CC, size: 0x8, addend: 0x0, symName: __ZNSt3__114__rewrap_rangeB7v160006IPKcS2_EET_S3_T0_, symObjAddr: 0x87B4, symBinAddr: 0x100012A60, symSize: 0x2C }
  - { offsetInCU: 0x4D6A, offset: 0x13918, size: 0x8, addend: 0x0, symName: __ZNSt3__113__rewrap_iterB7v160006IPcS1_NS_18__unwrap_iter_implIS1_Lb1EEEEET_S4_T0_, symObjAddr: 0x87E0, symBinAddr: 0x100012A8C, symSize: 0x5C }
  - { offsetInCU: 0x4DBF, offset: 0x1396D, size: 0x8, addend: 0x0, symName: __ZNSt3__19make_pairB7v160006IPKcS2_EENS_4pairINS_18__unwrap_ref_decayIT_E4typeENS4_IT0_E4typeEEEOS5_OS8_, symObjAddr: 0x883C, symBinAddr: 0x100012AE8, symSize: 0x20C }
  - { offsetInCU: 0x4E10, offset: 0x139BE, size: 0x8, addend: 0x0, symName: __ZNSt3__113__unwrap_iterB7v160006IPKcNS_18__unwrap_iter_implIS2_Lb1EEELi0EEEDTclsrT0_8__unwrapclsr3stdE7declvalIT_EEEES6_, symObjAddr: 0x8A48, symBinAddr: 0x100012CF4, symSize: 0x24 }
  - { offsetInCU: 0x4F55, offset: 0x13B03, size: 0x8, addend: 0x0, symName: __ZNSt3__119__copy_trivial_implB7v160006IKccEENS_4pairIPT_PT0_EES4_S4_S6_, symObjAddr: 0x8C04, symBinAddr: 0x100012EB0, symSize: 0x3B0 }
  - { offsetInCU: 0x4FC4, offset: 0x13B72, size: 0x8, addend: 0x0, symName: __ZNSt3__19make_pairB7v160006IRPKcPcEENS_4pairINS_18__unwrap_ref_decayIT_E4typeENS6_IT0_E4typeEEEOS7_OSA_, symObjAddr: 0x8FB4, symBinAddr: 0x100013260, symSize: 0x20C }
  - { offsetInCU: 0x5068, offset: 0x13C16, size: 0x8, addend: 0x0, symName: __ZNSt3__113__rewrap_iterB7v160006IPKcS2_NS_18__unwrap_iter_implIS2_Lb1EEEEET_S5_T0_, symObjAddr: 0x9358, symBinAddr: 0x100013604, symSize: 0x5C }
  - { offsetInCU: 0x50BD, offset: 0x13C6B, size: 0x8, addend: 0x0, symName: __ZNSt3__16fill_nB7v160006IPcmcEET_S2_T0_RKT1_, symObjAddr: 0x9444, symBinAddr: 0x1000136F0, symSize: 0x44 }
  - { offsetInCU: 0x5120, offset: 0x13CCE, size: 0x8, addend: 0x0, symName: __ZNSt3__18__fill_nB7v160006IPcmcEET_S2_T0_RKT1_, symObjAddr: 0x9488, symBinAddr: 0x100013734, symSize: 0x138 }
  - { offsetInCU: 0x5183, offset: 0x13D31, size: 0x8, addend: 0x0, symName: __ZNSt3__121__convert_to_integralB7v160006Em, symObjAddr: 0x95C0, symBinAddr: 0x10001386C, symSize: 0x14 }
  - { offsetInCU: 0x51AF, offset: 0x13D5D, size: 0x8, addend: 0x0, symName: __ZNSt3__1neB7v160006IcNS_11char_traitsIcEENS_9allocatorIcEEEEbRKNS_12basic_stringIT_T0_T1_EESB_, symObjAddr: 0x9C3C, symBinAddr: 0x100013BD4, symSize: 0x34 }
  - { offsetInCU: 0x5207, offset: 0x13DB5, size: 0x8, addend: 0x0, symName: __ZNSt3__1neB7v160006IcNS_11char_traitsIcEENS_9allocatorIcEEEEbRKNS_12basic_stringIT_T0_T1_EEPKS6_, symObjAddr: 0x9C70, symBinAddr: 0x100013C08, symSize: 0x34 }
  - { offsetInCU: 0x525F, offset: 0x13E0D, size: 0x8, addend: 0x0, symName: __ZNSt3__1eqB7v160006IcNS_11char_traitsIcEENS_9allocatorIcEEEEbRKNS_12basic_stringIT_T0_T1_EEPKS6_, symObjAddr: 0x9CA4, symBinAddr: 0x100013C3C, symSize: 0xDC }
  - { offsetInCU: 0x52C6, offset: 0x13E74, size: 0x8, addend: 0x0, symName: __ZNSt3__118__constexpr_memcmpB7v160006IcEEiPKT_S3_m, symObjAddr: 0x9E0C, symBinAddr: 0x100013DA4, symSize: 0x34 }
  - { offsetInCU: 0x5317, offset: 0x13EC5, size: 0x8, addend: 0x0, symName: __ZNSt3__1rsB7v160006IcNS_11char_traitsIcEENS_9allocatorIcEEEERNS_13basic_istreamIT_T0_EES9_RNS_12basic_stringIS6_S7_T1_EE, symObjAddr: 0x9E40, symBinAddr: 0x100013DD8, symSize: 0x998 }
  - { offsetInCU: 0x597A, offset: 0x14528, size: 0x8, addend: 0x0, symName: __ZNSt3__125__debug_db_invalidate_allB7v160006INS_12basic_stringIcNS_11char_traitsIcEENS_9allocatorIcEEEEEEvPT_, symObjAddr: 0xB280, symBinAddr: 0x100015204, symSize: 0x10 }
  - { offsetInCU: 0x8561, offset: 0x1710F, size: 0x8, addend: 0x0, symName: __ZN4Game5startEv, symObjAddr: 0x0, symBinAddr: 0x10000CA34, symSize: 0x1900 }
  - { offsetInCU: 0x8663, offset: 0x17211, size: 0x8, addend: 0x0, symName: __ZNSt3__112basic_stringIcNS_11char_traitsIcEENS_9allocatorIcEEEC1B7v160006IDnEEPKc, symObjAddr: 0x1900, symBinAddr: 0x10000E334, symSize: 0x34 }
  - { offsetInCU: 0x88B6, offset: 0x17464, size: 0x8, addend: 0x0, symName: __ZN7PokemonIiEC1ERKNSt3__112basic_stringIcNS1_11char_traitsIcEENS1_9allocatorIcEEEEii, symObjAddr: 0x1940, symBinAddr: 0x10000E368, symSize: 0x44 }
  - { offsetInCU: 0x890B, offset: 0x174B9, size: 0x8, addend: 0x0, symName: __ZN7PokemonIiEplERKS0_, symObjAddr: 0x1ACC, symBinAddr: 0x10000E3AC, symSize: 0x574 }
  - { offsetInCU: 0x8981, offset: 0x1752F, size: 0x8, addend: 0x0, symName: __ZlsIiERNSt3__113basic_ostreamIcNS0_11char_traitsIcEEEES5_RK7PokemonIT_E, symObjAddr: 0x2040, symBinAddr: 0x10000E920, symSize: 0x2C }
  - { offsetInCU: 0x89C5, offset: 0x17573, size: 0x8, addend: 0x0, symName: __ZNK7PokemonIiEeqERKS0_, symObjAddr: 0x206C, symBinAddr: 0x10000E94C, symSize: 0x2D4 }
  - { offsetInCU: 0x89FA, offset: 0x175A8, size: 0x8, addend: 0x0, symName: __ZNK7PokemonIiEgeERKS0_, symObjAddr: 0x2340, symBinAddr: 0x10000EC20, symSize: 0x110 }
  - { offsetInCU: 0x8A2F, offset: 0x175DD, size: 0x8, addend: 0x0, symName: __ZNK7PokemonIiEleERKS0_, symObjAddr: 0x2450, symBinAddr: 0x10000ED30, symSize: 0x110 }
  - { offsetInCU: 0x8A64, offset: 0x17612, size: 0x8, addend: 0x0, symName: __ZN7PokemonIiE6evolveERKNSt3__112basic_stringIcNS1_11char_traitsIcEENS1_9allocatorIcEEEE, symObjAddr: 0x2560, symBinAddr: 0x10000EE40, symSize: 0x84 }
  - { offsetInCU: 0x8A99, offset: 0x17647, size: 0x8, addend: 0x0, symName: __ZNSt3__112basic_stringIcNS_11char_traitsIcEENS_9allocatorIcEEEaSB7v160006EPKc, symObjAddr: 0x289C, symBinAddr: 0x10000F0F8, symSize: 0x2C }
  - { offsetInCU: 0x8ACE, offset: 0x1767C, size: 0x8, addend: 0x0, symName: __ZN7PokemonIiEC1ERKS0_, symObjAddr: 0x28C8, symBinAddr: 0x10000F124, symSize: 0x34 }
  - { offsetInCU: 0x8B07, offset: 0x176B5, size: 0x8, addend: 0x0, symName: __ZN7PokemonIiEppEv, symObjAddr: 0x28FC, symBinAddr: 0x10000F158, symSize: 0x94 }
  - { offsetInCU: 0x8B2E, offset: 0x176DC, size: 0x8, addend: 0x0, symName: __ZN7PokemonIiEppEi, symObjAddr: 0x2990, symBinAddr: 0x10000F1EC, symSize: 0xF8 }
  - { offsetInCU: 0x8B6E, offset: 0x1771C, size: 0x8, addend: 0x0, symName: __ZrsIiERNSt3__113basic_istreamIcNS0_11char_traitsIcEEEES5_R7PokemonIT_E, symObjAddr: 0x2AB4, symBinAddr: 0x10000F2E4, symSize: 0x7DC }
  - { offsetInCU: 0x8BDA, offset: 0x17788, size: 0x8, addend: 0x0, symName: __ZNSt3__112basic_stringIcNS_11char_traitsIcEENS_9allocatorIcEEEC2B7v160006IDnEEPKc, symObjAddr: 0x3290, symBinAddr: 0x10000FAC0, symSize: 0x218 }
  - { offsetInCU: 0x8C20, offset: 0x177CE, size: 0x8, addend: 0x0, symName: __ZN7PokemonIiEC2ERKNSt3__112basic_stringIcNS1_11char_traitsIcEENS1_9allocatorIcEEEEii, symObjAddr: 0x3628, symBinAddr: 0x10000FCD8, symSize: 0x25C }
  - { offsetInCU: 0x8C75, offset: 0x17823, size: 0x8, addend: 0x0, symName: __ZNSt3__112basic_stringIcNS_11char_traitsIcEENS_9allocatorIcEEEC1B7v160006Ev, symObjAddr: 0x3884, symBinAddr: 0x10000FF34, symSize: 0x2C }
  - { offsetInCU: 0x8C9F, offset: 0x1784D, size: 0x8, addend: 0x0, symName: __ZNSt3__112basic_stringIcNS_11char_traitsIcEENS_9allocatorIcEEEC2B7v160006Ev, symObjAddr: 0x3AD0, symBinAddr: 0x10000FF60, symSize: 0x1FC }
  - { offsetInCU: 0x8CCA, offset: 0x17878, size: 0x8, addend: 0x0, symName: __ZNSt3__112basic_stringIcNS_11char_traitsIcEENS_9allocatorIcEEE14__default_initB7v160006Ev, symObjAddr: 0x3CCC, symBinAddr: 0x10001015C, symSize: 0x298 }
  - { offsetInCU: 0x8D20, offset: 0x178CE, size: 0x8, addend: 0x0, symName: __ZNSt3__117__compressed_pairINS_12basic_stringIcNS_11char_traitsIcEENS_9allocatorIcEEE5__repES5_E5firstB7v160006Ev, symObjAddr: 0x3F64, symBinAddr: 0x1000103F4, symSize: 0x24 }
  - { offsetInCU: 0x8D46, offset: 0x178F4, size: 0x8, addend: 0x0, symName: __ZNSt3__112basic_stringIcNS_11char_traitsIcEENS_9allocatorIcEEE11__recommendB7v160006Em, symObjAddr: 0x3F94, symBinAddr: 0x100010418, symSize: 0x9C }
  - { offsetInCU: 0x8D79, offset: 0x17927, size: 0x8, addend: 0x0, symName: __ZNSt3__116allocator_traitsINS_9allocatorIcEEE8allocateB7v160006ERS2_m, symObjAddr: 0x4030, symBinAddr: 0x1000104B4, symSize: 0x2C }
  - { offsetInCU: 0x8DAC, offset: 0x1795A, size: 0x8, addend: 0x0, symName: __ZNSt3__112basic_stringIcNS_11char_traitsIcEENS_9allocatorIcEEE7__allocB7v160006Ev, symObjAddr: 0x405C, symBinAddr: 0x1000104E0, symSize: 0x24 }
  - { offsetInCU: 0x8DD2, offset: 0x17980, size: 0x8, addend: 0x0, symName: __ZNSt3__112basic_stringIcNS_11char_traitsIcEENS_9allocatorIcEEE16__begin_lifetimeB7v160006EPcm, symObjAddr: 0x4080, symBinAddr: 0x100010504, symSize: 0x14 }
  - { offsetInCU: 0x8E05, offset: 0x179B3, size: 0x8, addend: 0x0, symName: __ZNSt3__112basic_stringIcNS_11char_traitsIcEENS_9allocatorIcEEE18__set_long_pointerB7v160006EPc, symObjAddr: 0x4094, symBinAddr: 0x100010518, symSize: 0x7C }
  - { offsetInCU: 0x8E3A, offset: 0x179E8, size: 0x8, addend: 0x0, symName: __ZNSt3__112basic_stringIcNS_11char_traitsIcEENS_9allocatorIcEEE14__set_long_capB7v160006Em, symObjAddr: 0x4110, symBinAddr: 0x100010594, symSize: 0xEC }
  - { offsetInCU: 0x8E6F, offset: 0x17A1D, size: 0x8, addend: 0x0, symName: __ZNSt3__112basic_stringIcNS_11char_traitsIcEENS_9allocatorIcEEE15__set_long_sizeB7v160006Em, symObjAddr: 0x41FC, symBinAddr: 0x100010680, symSize: 0x80 }
  - { offsetInCU: 0x8EA4, offset: 0x17A52, size: 0x8, addend: 0x0, symName: __ZNSt3__122__compressed_pair_elemINS_12basic_stringIcNS_11char_traitsIcEENS_9allocatorIcEEE5__repELi0ELb0EE5__getB7v160006Ev, symObjAddr: 0x427C, symBinAddr: 0x100010700, symSize: 0x14 }
  - { offsetInCU: 0x8ECA, offset: 0x17A78, size: 0x8, addend: 0x0, symName: __ZNSt3__112basic_stringIcNS_11char_traitsIcEENS_9allocatorIcEEE10__align_itB7v160006ILm16EEEmm, symObjAddr: 0x4290, symBinAddr: 0x100010714, symSize: 0x1C }
  - { offsetInCU: 0x8EF8, offset: 0x17AA6, size: 0x8, addend: 0x0, symName: __ZNSt3__19allocatorIcE8allocateB7v160006Em, symObjAddr: 0x42AC, symBinAddr: 0x100010730, symSize: 0x88 }
  - { offsetInCU: 0x8F37, offset: 0x17AE5, size: 0x8, addend: 0x0, symName: __ZNSt3__116allocator_traitsINS_9allocatorIcEEE8max_sizeB7v160006IS2_vEEmRKS2_, symObjAddr: 0x4334, symBinAddr: 0x1000107B8, symSize: 0x24 }
  - { offsetInCU: 0x8F65, offset: 0x17B13, size: 0x8, addend: 0x0, symName: __ZNKSt3__19allocatorIcE8max_sizeB7v160006Ev, symObjAddr: 0x43B8, symBinAddr: 0x1000107DC, symSize: 0x14 }
  - { offsetInCU: 0x8F8B, offset: 0x17B39, size: 0x8, addend: 0x0, symName: __ZNSt3__117__compressed_pairINS_12basic_stringIcNS_11char_traitsIcEENS_9allocatorIcEEE5__repES5_E6secondB7v160006Ev, symObjAddr: 0x43F0, symBinAddr: 0x1000107F0, symSize: 0x24 }
  - { offsetInCU: 0x8FB1, offset: 0x17B5F, size: 0x8, addend: 0x0, symName: __ZNSt3__122__compressed_pair_elemINS_9allocatorIcEELi1ELb1EE5__getB7v160006Ev, symObjAddr: 0x4414, symBinAddr: 0x100010814, symSize: 0x14 }
  - { offsetInCU: 0x9002, offset: 0x17BB0, size: 0x8, addend: 0x0, symName: __ZNSt3__116allocator_traitsINS_9allocatorIcEEE37select_on_container_copy_constructionB7v160006IS2_vvEES2_RKS2_, symObjAddr: 0x663C, symBinAddr: 0x100010B20, symSize: 0x10 }
  - { offsetInCU: 0x9031, offset: 0x17BDF, size: 0x8, addend: 0x0, symName: __ZNKSt3__112basic_stringIcNS_11char_traitsIcEENS_9allocatorIcEEE13get_allocatorB7v160006Ev, symObjAddr: 0x664C, symBinAddr: 0x100010B30, symSize: 0x24 }
  - { offsetInCU: 0x9057, offset: 0x17C05, size: 0x8, addend: 0x0, symName: __ZNSt3__112basic_stringIcNS_11char_traitsIcEENS_9allocatorIcEEEC1B7v160006ENS_24__uninitialized_size_tagEmRKS4_, symObjAddr: 0x6670, symBinAddr: 0x100010B54, symSize: 0x3C }
  - { offsetInCU: 0x90AA, offset: 0x17C58, size: 0x8, addend: 0x0, symName: __ZNSt3__112basic_stringIcNS_11char_traitsIcEENS_9allocatorIcEEE13__get_pointerB7v160006Ev, symObjAddr: 0x66C0, symBinAddr: 0x100010BA4, symSize: 0x54 }
  - { offsetInCU: 0x90D0, offset: 0x17C7E, size: 0x8, addend: 0x0, symName: __ZNSt3__111char_traitsIcE4copyEPcPKcm, symObjAddr: 0x6714, symBinAddr: 0x100010BF8, symSize: 0x8C }
  - { offsetInCU: 0x910F, offset: 0x17CBD, size: 0x8, addend: 0x0, symName: __ZNSt3__111char_traitsIcE6assignEPcmc, symObjAddr: 0x67A0, symBinAddr: 0x100010C84, symSize: 0x250 }
  - { offsetInCU: 0x9154, offset: 0x17D02, size: 0x8, addend: 0x0, symName: __ZNKSt3__112basic_stringIcNS_11char_traitsIcEENS_9allocatorIcEEE7__allocB7v160006Ev, symObjAddr: 0x6B00, symBinAddr: 0x100010ED4, symSize: 0x24 }
  - { offsetInCU: 0x917A, offset: 0x17D28, size: 0x8, addend: 0x0, symName: __ZNKSt3__117__compressed_pairINS_12basic_stringIcNS_11char_traitsIcEENS_9allocatorIcEEE5__repES5_E6secondB7v160006Ev, symObjAddr: 0x6B24, symBinAddr: 0x100010EF8, symSize: 0x24 }
  - { offsetInCU: 0x91A0, offset: 0x17D4E, size: 0x8, addend: 0x0, symName: __ZNKSt3__122__compressed_pair_elemINS_9allocatorIcEELi1ELb1EE5__getB7v160006Ev, symObjAddr: 0x6B48, symBinAddr: 0x100010F1C, symSize: 0x14 }
  - { offsetInCU: 0x91C6, offset: 0x17D74, size: 0x8, addend: 0x0, symName: __ZNSt3__112basic_stringIcNS_11char_traitsIcEENS_9allocatorIcEEEC2B7v160006ENS_24__uninitialized_size_tagEmRKS4_, symObjAddr: 0x6B5C, symBinAddr: 0x100010F30, symSize: 0x32C }
  - { offsetInCU: 0x924C, offset: 0x17DFA, size: 0x8, addend: 0x0, symName: __ZNSt3__117__compressed_pairINS_12basic_stringIcNS_11char_traitsIcEENS_9allocatorIcEEE5__repES5_EC1B7v160006INS_18__default_init_tagERKS5_EEOT_OT0_, symObjAddr: 0x6E88, symBinAddr: 0x10001125C, symSize: 0x3C }
  - { offsetInCU: 0x92A4, offset: 0x17E52, size: 0x8, addend: 0x0, symName: __ZNKSt3__112basic_stringIcNS_11char_traitsIcEENS_9allocatorIcEEE8max_sizeB7v160006Ev, symObjAddr: 0x6EC4, symBinAddr: 0x100011298, symSize: 0xBC }
  - { offsetInCU: 0x92F7, offset: 0x17EA5, size: 0x8, addend: 0x0, symName: __ZNKSt3__112basic_stringIcNS_11char_traitsIcEENS_9allocatorIcEEE20__throw_length_errorB7v160006Ev, symObjAddr: 0x6F80, symBinAddr: 0x100011354, symSize: 0x20 }
  - { offsetInCU: 0x931D, offset: 0x17ECB, size: 0x8, addend: 0x0, symName: __ZNSt3__112basic_stringIcNS_11char_traitsIcEENS_9allocatorIcEEE13__fits_in_ssoB7v160006Em, symObjAddr: 0x6FA0, symBinAddr: 0x100011374, symSize: 0x4C }
  - { offsetInCU: 0x9341, offset: 0x17EEF, size: 0x8, addend: 0x0, symName: __ZNSt3__112basic_stringIcNS_11char_traitsIcEENS_9allocatorIcEEE16__set_short_sizeB7v160006Em, symObjAddr: 0x6FEC, symBinAddr: 0x1000113C0, symSize: 0x130 }
  - { offsetInCU: 0x9376, offset: 0x17F24, size: 0x8, addend: 0x0, symName: __ZNSt3__117__compressed_pairINS_12basic_stringIcNS_11char_traitsIcEENS_9allocatorIcEEE5__repES5_EC2B7v160006INS_18__default_init_tagERKS5_EEOT_OT0_, symObjAddr: 0x711C, symBinAddr: 0x1000114F0, symSize: 0x40 }
  - { offsetInCU: 0x93CE, offset: 0x17F7C, size: 0x8, addend: 0x0, symName: __ZNSt3__122__compressed_pair_elemINS_9allocatorIcEELi1ELb1EEC2B7v160006IRKS2_vEEOT_, symObjAddr: 0x715C, symBinAddr: 0x100011530, symSize: 0x18 }
  - { offsetInCU: 0x9410, offset: 0x17FBE, size: 0x8, addend: 0x0, symName: __ZNSt3__114numeric_limitsImE3maxB7v160006Ev, symObjAddr: 0x7174, symBinAddr: 0x100011548, symSize: 0x14 }
  - { offsetInCU: 0x9424, offset: 0x17FD2, size: 0x8, addend: 0x0, symName: __ZNSt3__123__libcpp_numeric_limitsImLb1EE3maxB7v160006Ev, symObjAddr: 0x7188, symBinAddr: 0x10001155C, symSize: 0x8 }
  - { offsetInCU: 0x9438, offset: 0x17FE6, size: 0x8, addend: 0x0, symName: __ZNSt3__112basic_stringIcNS_11char_traitsIcEENS_9allocatorIcEEE18__get_long_pointerB7v160006Ev, symObjAddr: 0x72B8, symBinAddr: 0x100011564, symSize: 0x6C }
  - { offsetInCU: 0x945E, offset: 0x1800C, size: 0x8, addend: 0x0, symName: __ZNSt3__112basic_stringIcNS_11char_traitsIcEENS_9allocatorIcEEE19__get_short_pointerB7v160006Ev, symObjAddr: 0x7324, symBinAddr: 0x1000115D0, symSize: 0x28 }
  - { offsetInCU: 0x9484, offset: 0x18032, size: 0x8, addend: 0x0, symName: __ZNSt3__114pointer_traitsIPcE10pointer_toB7v160006ERc, symObjAddr: 0x734C, symBinAddr: 0x1000115F8, symSize: 0x14 }
  - { offsetInCU: 0x94E3, offset: 0x18091, size: 0x8, addend: 0x0, symName: __ZNKSt3__114__copy_trivialclB7v160006IKccLi0EEENS_4pairIPT_PT0_EES5_S5_S7_, symObjAddr: 0x8354, symBinAddr: 0x100012600, symSize: 0x230 }
  - { offsetInCU: 0x956C, offset: 0x1811A, size: 0x8, addend: 0x0, symName: __ZNSt3__14pairIPKcS2_EC1B7v160006ERKS2_S5_, symObjAddr: 0x8A6C, symBinAddr: 0x100012D18, symSize: 0x3C }
  - { offsetInCU: 0x95B2, offset: 0x18160, size: 0x8, addend: 0x0, symName: __ZNSt3__14pairIPKcS2_EC2B7v160006ERKS2_S5_, symObjAddr: 0x8AA8, symBinAddr: 0x100012D54, symSize: 0x138 }
  - { offsetInCU: 0x95F8, offset: 0x181A6, size: 0x8, addend: 0x0, symName: __ZNSt3__118__unwrap_iter_implIPKcLb1EE8__unwrapB7v160006ES2_, symObjAddr: 0x8BE0, symBinAddr: 0x100012E8C, symSize: 0x24 }
  - { offsetInCU: 0x961B, offset: 0x181C9, size: 0x8, addend: 0x0, symName: __ZNSt3__14pairIPKcPcEC1B7v160006ERKS2_RKS3_, symObjAddr: 0x91C0, symBinAddr: 0x10001346C, symSize: 0x3C }
  - { offsetInCU: 0x9661, offset: 0x1820F, size: 0x8, addend: 0x0, symName: __ZNSt3__14pairIPKcPcEC2B7v160006ERKS2_RKS3_, symObjAddr: 0x91FC, symBinAddr: 0x1000134A8, symSize: 0x138 }
  - { offsetInCU: 0x96A7, offset: 0x18255, size: 0x8, addend: 0x0, symName: __ZNSt3__118__unwrap_iter_implIPcLb1EE8__unwrapB7v160006ES1_, symObjAddr: 0x9334, symBinAddr: 0x1000135E0, symSize: 0x24 }
  - { offsetInCU: 0x96CA, offset: 0x18278, size: 0x8, addend: 0x0, symName: __ZNSt3__118__unwrap_iter_implIPKcLb1EE8__rewrapB7v160006ES2_S2_, symObjAddr: 0x93B4, symBinAddr: 0x100013660, symSize: 0x48 }
  - { offsetInCU: 0x96FB, offset: 0x182A9, size: 0x8, addend: 0x0, symName: __ZNSt3__118__unwrap_iter_implIPcLb1EE8__rewrapB7v160006ES1_S1_, symObjAddr: 0x93FC, symBinAddr: 0x1000136A8, symSize: 0x48 }
  - { offsetInCU: 0x972C, offset: 0x182DA, size: 0x8, addend: 0x0, symName: __ZN7PokemonIiEC2ERKS0_, symObjAddr: 0x96E4, symBinAddr: 0x100013880, symSize: 0x354 }
  - { offsetInCU: 0x9765, offset: 0x18313, size: 0x8, addend: 0x0, symName: __ZNSt3__111char_traitsIcE7compareEPKcS3_m, symObjAddr: 0x9D80, symBinAddr: 0x100013D18, symSize: 0x8C }
  - { offsetInCU: 0x97A4, offset: 0x18352, size: 0x8, addend: 0x0, symName: __ZNSt3__19basic_iosIcNS_11char_traitsIcEEE5clearB7v160006Ej, symObjAddr: 0xA7D8, symBinAddr: 0x100014770, symSize: 0x2C }
  - { offsetInCU: 0x987E, offset: 0x1842C, size: 0x8, addend: 0x0, symName: __ZNKSt3__113basic_istreamIcNS_11char_traitsIcEEE6sentrycvbB7v160006Ev, symObjAddr: 0xA804, symBinAddr: 0x10001479C, symSize: 0x88 }
  - { offsetInCU: 0x98A4, offset: 0x18452, size: 0x8, addend: 0x0, symName: __ZNSt3__112basic_stringIcNS_11char_traitsIcEENS_9allocatorIcEEE5clearB7v160006Ev, symObjAddr: 0xA88C, symBinAddr: 0x100014824, symSize: 0x33C }
  - { offsetInCU: 0x98CD, offset: 0x1847B, size: 0x8, addend: 0x0, symName: __ZNSt3__115basic_streambufIcNS_11char_traitsIcEEE5sgetcB7v160006Ev, symObjAddr: 0xABDC, symBinAddr: 0x100014B60, symSize: 0x1E4 }
  - { offsetInCU: 0x98F3, offset: 0x184A1, size: 0x8, addend: 0x0, symName: __ZNSt3__111char_traitsIcE12to_char_typeEi, symObjAddr: 0xADC0, symBinAddr: 0x100014D44, symSize: 0x18 }
  - { offsetInCU: 0x9916, offset: 0x184C4, size: 0x8, addend: 0x0, symName: __ZNKSt3__15ctypeIcE2isB7v160006Ejc, symObjAddr: 0xADD8, symBinAddr: 0x100014D5C, symSize: 0x120 }
  - { offsetInCU: 0x995A, offset: 0x18508, size: 0x8, addend: 0x0, symName: __ZNSt3__115basic_streambufIcNS_11char_traitsIcEEE6sbumpcB7v160006Ev, symObjAddr: 0xAEF8, symBinAddr: 0x100014E7C, symSize: 0x1EC }
  - { offsetInCU: 0x9980, offset: 0x1852E, size: 0x8, addend: 0x0, symName: __ZNSt3__18ios_base18__setstate_nothrowB7v160006Ej, symObjAddr: 0xB0E4, symBinAddr: 0x100015068, symSize: 0x178 }
  - { offsetInCU: 0x99B5, offset: 0x18563, size: 0x8, addend: 0x0, symName: __ZNKSt3__19basic_iosIcNS_11char_traitsIcEEE10exceptionsB7v160006Ev, symObjAddr: 0xB25C, symBinAddr: 0x1000151E0, symSize: 0x24 }
  - { offsetInCU: 0x99DB, offset: 0x18589, size: 0x8, addend: 0x0, symName: __ZNSt3__111char_traitsIcE6assignERcRKc, symObjAddr: 0xB290, symBinAddr: 0x100015214, symSize: 0xF4 }
  - { offsetInCU: 0x9A0C, offset: 0x185BA, size: 0x8, addend: 0x0, symName: __ZNSt3__111char_traitsIcE11to_int_typeEc, symObjAddr: 0xB38C, symBinAddr: 0x100015308, symSize: 0x14 }
  - { offsetInCU: 0x9A2E, offset: 0x185DC, size: 0x8, addend: 0x0, symName: __Z7isasciii, symObjAddr: 0xB3A0, symBinAddr: 0x10001531C, symSize: 0x24 }
  - { offsetInCU: 0x9A5B, offset: 0x18609, size: 0x8, addend: 0x0, symName: __ZNKSt3__18ios_base10exceptionsB7v160006Ev, symObjAddr: 0xB3C4, symBinAddr: 0x100015340, symSize: 0x8C }
...
